(lp0
(dp1
S'scatt_setup'
p2
Vbs4(65.8)\u000aatt_pos(1)
p3
sS'scatt_time'
p4
F7200.0
sS'scatt_time_5'
p5
F7200.0
sS'scatt_enabled_12'
p6
I00
sS'scatt_time_4'
p7
F7200.0
sS'scatt_enabled_11'
p8
I00
sS'scatt_time_7'
p9
F7200.0
sS'scatt_time_6'
p10
F7200.0
sS'scatt_time_9'
p11
F7200.0
sS'scatt_time_8'
p12
F7200.0
sS'scatt_enabled_10'
p13
I00
sS'trans_time_12'
p14
F600.0
sS'scatt_time_1'
p15
F7200.0
sS'scatt_time_3'
p16
F7200.0
sS'trans_time_11'
p17
F600.0
sS'scatt_time_2'
p18
F7200.0
sS'trans_time_10'
p19
F600.0
sS'trans_time_1'
p20
F600.0
sS'trans_time_2'
p21
F600.0
sS'trans_enabled'
p22
I00
sS'trans_time_9'
p23
F600.0
sS'trans_time'
p24
F600.0
sS'trans_time_7'
p25
F600.0
sS'trans_time_8'
p26
F600.0
sS'trans_time_5'
p27
F600.0
sS'trans_time_6'
p28
F600.0
sS'trans_time_3'
p29
F600.0
sS'trans_time_4'
p30
F600.0
sS'trans_setup'
p31
Vatt_pos(4)\u000abs4(0.0)
p32
sS'name_9'
p33
VP3HT 50mg CF
p34
sS'name_8'
p35
VP3HT 20mg CF
p36
sS'name_7'
p37
VP3HT 10mg CF
p38
sS'name_6'
p39
VP3HT 5mg CF
p40
sS'name_5'
p41
VPCE10 5mg dCB
p42
sS'name_4'
p43
VPTB7 0.5mg dCB
p44
sS'name_3'
p45
VPTB7 5mg  dCB
p46
sS'name_2'
p47
VP3HT 20mg dDCB
p48
sS'name_1'
p49
VP3HT 40mg dDCB
p50
sS'title'
p51
VNov2017_Nikos_7m_asy
p52
sS'scatt_enabled'
p53
I00
sS'scatt_time_11'
p54
F7200.0
sS'scatt_time_12'
p55
F7200.0
sS'trans_enabled_2'
p56
I00
sS'trans_enabled_1'
p57
I00
sS'scatt_time_10'
p58
F7200.0
sS'trans_enabled_4'
p59
I01
sS'trans_enabled_3'
p60
I01
sS'trans_enabled_6'
p61
I00
sS'trans_enabled_5'
p62
I01
sS'trans_enabled_8'
p63
I00
sS'trans_enabled_7'
p64
I00
sS'trans_enabled_9'
p65
I00
sS'scatt_enabled_1'
p66
I00
sS'name_10'
p67
VEmptyCell
p68
sS'scatt_enabled_3'
p69
I01
sS'scatt_enabled_2'
p70
I01
sS'name_11'
p71
V
p72
sS'name_12'
p73
V
p74
sS'scatt_enabled_9'
p75
I01
sS'scatt_enabled_8'
p76
I01
sS'trans_enabled_12'
p77
I00
sS'trans_enabled_11'
p78
I00
sS'trans_enabled_10'
p79
I00
sS'scatt_enabled_5'
p80
I01
sS'scatt_enabled_4'
p81
I01
sS'config'
p82
V
p83
sS'scatt_enabled_7'
p84
I01
sS'scatt_enabled_6'
p85
I01
sa.