(lp0
(dp1
S'name_3'
p2
V
p3
sS'name_2'
p4
V
p5
sS'name_1'
p6
Vtest
p7
sS'scatt_setup'
p8
V
p9
sS'scatt_time'
p10
F120.0
sS'scatt_time_5'
p11
F120.0
sS'scatt_time_4'
p12
F120.0
sS'scatt_time_6'
p13
F120.0
sS'title'
p14
VL1=#_L2=#_ctn=#_name=WB2
p15
sS'scatt_enabled'
p16
I00
sS'scatt_time_1'
p17
F120.0
sS'scatt_time_3'
p18
F120.0
sS'scatt_time_2'
p19
F120.0
sS'trans_enabled_2'
p20
I00
sS'trans_enabled_1'
p21
I00
sS'trans_enabled_4'
p22
I00
sS'trans_enabled_3'
p23
I00
sS'trans_time_1'
p24
F5.0
sS'trans_enabled_6'
p25
I00
sS'trans_time_2'
p26
F60.0
sS'trans_enabled_5'
p27
I00
sS'trans_enabled'
p28
I00
sS'trans_time'
p29
F60.0
sS'trans_time_5'
p30
F60.0
sS'trans_time_6'
p31
F60.0
sS'trans_time_3'
p32
F60.0
sS'trans_time_4'
p33
F60.0
sS'scatt_enabled_1'
p34
I00
sS'scatt_enabled_3'
p35
I00
sS'scatt_enabled_2'
p36
I00
sS'trans_setup'
p37
V
p38
sS'scatt_enabled_5'
p39
I00
sS'config'
p40
V
p41
sS'scatt_enabled_4'
p42
I00
sS'name_6'
p43
V
p44
sS'name_5'
p45
V
p46
sS'name_4'
p47
V
p48
sS'scatt_enabled_6'
p49
I00
sa.