(lp0
(dp1
S'scatt_setup'
p2
Vbs4(65.8)\u000aatt_pos(1)
p3
sS'thickness'
p4
F0.20000000298023224
sS'scatt_time'
p5
F2700.0
sS'scatt_time_5'
p6
F2700.0
sS'scatt_enabled_12'
p7
I00
sS'scatt_time_4'
p8
F2700.0
sS'scatt_enabled_11'
p9
I00
sS'scatt_time_7'
p10
F2700.0
sS'scatt_time_6'
p11
F2700.0
sS'scatt_time_9'
p12
F2700.0
sS'scatt_time_8'
p13
F2700.0
sS'scatt_enabled_10'
p14
I00
sS'trans_time_12'
p15
F300.0
sS'scatt_time_1'
p16
F960.0
sS'scatt_time_3'
p17
F2700.0
sS'trans_time_11'
p18
F300.0
sS'scatt_time_2'
p19
F2700.0
sS'trans_time_10'
p20
F300.0
sS'trans_time_1'
p21
F300.0
sS'thickness_12'
p22
F0.20000000298023224
sS'trans_time_2'
p23
F300.0
sS'thickness_10'
p24
F0.20000000298023224
sS'trans_enabled'
p25
I00
sS'thickness_11'
p26
F0.20000000298023224
sS'trans_time_9'
p27
F300.0
sS'trans_time'
p28
F300.0
sS'trans_time_7'
p29
F300.0
sS'trans_time_8'
p30
F300.0
sS'trans_time_5'
p31
F300.0
sS'trans_time_6'
p32
F300.0
sS'trans_time_3'
p33
F300.0
sS'trans_time_4'
p34
F300.0
sS'trans_setup'
p35
Vatt_pos(2)\u000abs4(0.0)
p36
sS'name_9'
p37
VVK_PAPB10
p38
sS'name_8'
p39
VCB72
p40
sS'name_7'
p41
VCB71
p42
sS'name_6'
p43
VCB70
p44
sS'name_5'
p45
VCB69
p46
sS'name_4'
p47
VCB68_30C
p48
sS'name_3'
p49
VCB67_30C
p50
sS'name_2'
p51
VMV_P0_61NIRON
p52
sS'name_1'
p53
VMV_P0_9NIRON
p54
sS'title'
p55
V9601_2021_Mark setting_TOF
p56
sS'scatt_enabled'
p57
I00
sS'scatt_time_11'
p58
F2700.0
sS'scatt_time_12'
p59
F2700.0
sS'trans_enabled_2'
p60
I00
sS'trans_enabled_1'
p61
I00
sS'scatt_time_10'
p62
F2700.0
sS'trans_enabled_4'
p63
I00
sS'trans_enabled_3'
p64
I00
sS'trans_enabled_6'
p65
I00
sS'trans_enabled_5'
p66
I00
sS'trans_enabled_8'
p67
I00
sS'trans_enabled_7'
p68
I00
sS'trans_enabled_9'
p69
I00
sS'scatt_enabled_1'
p70
I01
sS'name_10'
p71
VVK_MAPB10
p72
sS'scatt_enabled_3'
p73
I00
sS'scatt_enabled_2'
p74
I00
sS'thickness_2'
p75
F0.20000000298023224
sS'name_11'
p76
VVK_MAPB20
p77
sS'thickness_1'
p78
F0.20000000298023224
sS'name_12'
p79
VVK_C8APB20
p80
sS'thickness_4'
p81
F0.20000000298023224
sS'scatt_enabled_9'
p82
I00
sS'thickness_3'
p83
F0.20000000298023224
sS'scatt_enabled_8'
p84
I00
sS'trans_enabled_12'
p85
I00
sS'thickness_6'
p86
F0.20000000298023224
sS'trans_enabled_11'
p87
I00
sS'thickness_5'
p88
F0.20000000298023224
sS'trans_enabled_10'
p89
I00
sS'scatt_enabled_5'
p90
I00
sS'thickness_8'
p91
F0.20000000298023224
sS'scatt_enabled_4'
p92
I00
sS'config'
p93
Vsapmot('D17.5')
p94
sS'thickness_7'
p95
F0.20000000298023224
sS'scatt_enabled_7'
p96
I00
sS'scatt_enabled_6'
p97
I00
sS'thickness_9'
p98
F0.20000000298023224
sa.