(lp0
(dp1
S'scatt_setup'
p2
Vbs4(65.8)\u000aatt_pos(1)
p3
sS'scatt_time'
p4
F300.0
sS'scatt_time_5'
p5
F300.0
sS'scatt_time_4'
p6
F300.0
sS'scatt_time_7'
p7
F300.0
sS'scatt_time_6'
p8
F300.0
sS'scatt_time_9'
p9
F300.0
sS'scatt_time_8'
p10
F300.0
sS'scatt_enabled_10'
p11
I00
sS'scatt_time_1'
p12
F300.0
sS'scatt_time_3'
p13
F300.0
sS'scatt_time_2'
p14
F300.0
sS'trans_time_10'
p15
F300.0
sS'trans_time_1'
p16
F600.0
sS'trans_time_2'
p17
F300.0
sS'trans_enabled'
p18
I01
sS'trans_time_9'
p19
F300.0
sS'trans_time'
p20
F300.0
sS'trans_time_7'
p21
F300.0
sS'trans_time_8'
p22
F300.0
sS'trans_time_5'
p23
F300.0
sS'trans_time_6'
p24
F300.0
sS'trans_time_3'
p25
F300.0
sS'trans_time_4'
p26
F300.0
sS'trans_setup'
p27
Vatt_pos(2)\u000abs4(0.0)
p28
sS'name_9'
p29
VL7y_20C
p30
sS'name_8'
p31
VL6y_20C
p32
sS'name_7'
p33
VL5y_20C
p34
sS'name_6'
p35
VL4y_20C
p36
sS'name_5'
p37
VL3y_20C
p38
sS'name_4'
p39
VL2y_20C
p40
sS'name_3'
p41
VL1y_20C
p42
sS'name_2'
p43
VBlockedBeam
p44
sS'name_1'
p45
VEmptyBeam(TempSensor)
p46
sS'title'
p47
VLeonie_6m_setting sapmot D5
p48
sS'scatt_enabled'
p49
I00
sS'trans_enabled_2'
p50
I00
sS'trans_enabled_1'
p51
I01
sS'scatt_time_10'
p52
F10800.0
sS'trans_enabled_4'
p53
I00
sS'trans_enabled_3'
p54
I00
sS'trans_enabled_6'
p55
I00
sS'trans_enabled_5'
p56
I00
sS'trans_enabled_8'
p57
I00
sS'trans_enabled_7'
p58
I00
sS'trans_enabled_9'
p59
I00
sS'scatt_enabled_1'
p60
I00
sS'name_10'
p61
VD2O_20C
p62
sS'scatt_enabled_3'
p63
I00
sS'scatt_enabled_2'
p64
I00
sS'scatt_enabled_9'
p65
I00
sS'scatt_enabled_8'
p66
I00
sS'trans_enabled_10'
p67
I00
sS'scatt_enabled_5'
p68
I00
sS'scatt_enabled_4'
p69
I00
sS'config'
p70
V
p71
sS'scatt_enabled_7'
p72
I00
sS'scatt_enabled_6'
p73
I00
sa(dp74
g2
Vbs4(65.8)\u000aatt_pos(1)
p75
sg4
F10800.0
sS'scatt_time_5'
p76
F10800.0
sS'scatt_time_4'
p77
F10800.0
sS'scatt_time_7'
p78
F10800.0
sS'scatt_time_6'
p79
F10800.0
sS'scatt_time_9'
p80
F600.0
sS'scatt_time_8'
p81
F600.0
sS'scatt_enabled_10'
p82
I00
sS'scatt_time_1'
p83
F10800.0
sS'scatt_time_3'
p84
F10800.0
sS'scatt_time_2'
p85
F10800.0
sS'trans_time_10'
p86
F300.0
sS'trans_time_1'
p87
F600.0
sS'trans_time_2'
p88
F300.0
sg18
I01
sS'trans_time_9'
p89
F300.0
sg20
F300.0
sS'trans_time_7'
p90
F300.0
sS'trans_time_8'
p91
F300.0
sS'trans_time_5'
p92
F300.0
sS'trans_time_6'
p93
F300.0
sS'trans_time_3'
p94
F300.0
sS'trans_time_4'
p95
F300.0
sg27
Vatt_pos(2)\u000abs4(0.0)
p96
sS'name_9'
p97
VL7y_20C
p98
sS'name_8'
p99
VL6y_20C
p100
sS'name_7'
p101
VL5y_20C
p102
sS'name_6'
p103
VL4y_20C
p104
sS'name_5'
p105
VL3y_20C
p106
sS'name_4'
p107
VL2y_20C
p108
sS'name_3'
p109
VL1y_20C
p110
sS'name_2'
p111
VBlockedBeam
p112
sS'name_1'
p113
VEmptyBeam(TempSensor)
p114
sg47
VLeonie_6m_setting sapmot D7.5
p115
sg49
I01
sS'trans_enabled_2'
p116
I00
sS'trans_enabled_1'
p117
I01
sS'scatt_time_10'
p118
F10800.0
sS'trans_enabled_4'
p119
I01
sS'trans_enabled_3'
p120
I01
sS'trans_enabled_6'
p121
I01
sS'trans_enabled_5'
p122
I01
sS'trans_enabled_8'
p123
I01
sS'trans_enabled_7'
p124
I01
sS'trans_enabled_9'
p125
I01
sS'scatt_enabled_1'
p126
I00
sS'name_10'
p127
VD2O_20C
p128
sS'scatt_enabled_3'
p129
I01
sS'scatt_enabled_2'
p130
I01
sS'scatt_enabled_9'
p131
I01
sS'scatt_enabled_8'
p132
I01
sS'trans_enabled_10'
p133
I01
sS'scatt_enabled_5'
p134
I01
sS'scatt_enabled_4'
p135
I01
sg70
Vsapmot('D7.5')
p136
sS'scatt_enabled_7'
p137
I00
sS'scatt_enabled_6'
p138
I01
sa(dp139
g2
Vbs4(65.8)\u000aatt_pos(1)
p140
sg4
F10800.0
sS'scatt_time_5'
p141
F10800.0
sS'scatt_time_4'
p142
F10800.0
sS'scatt_time_7'
p143
F10800.0
sS'scatt_time_6'
p144
F10800.0
sS'scatt_time_9'
p145
F10800.0
sS'scatt_time_8'
p146
F10800.0
sS'scatt_enabled_10'
p147
I00
sS'scatt_time_1'
p148
F10800.0
sS'scatt_time_3'
p149
F10800.0
sS'scatt_time_2'
p150
F10800.0
sS'trans_time_10'
p151
F300.0
sS'trans_time_1'
p152
F600.0
sS'trans_time_2'
p153
F300.0
sg18
I00
sS'trans_time_9'
p154
F300.0
sg20
F300.0
sS'trans_time_7'
p155
F300.0
sS'trans_time_8'
p156
F300.0
sS'trans_time_5'
p157
F300.0
sS'trans_time_6'
p158
F300.0
sS'trans_time_3'
p159
F300.0
sS'trans_time_4'
p160
F300.0
sg27
Vatt_pos(2)\u000abs4(0.0)
p161
sS'name_9'
p162
VL7y_20C
p163
sS'name_8'
p164
VL6y_20C
p165
sS'name_7'
p166
VL5y_20C
p167
sS'name_6'
p168
VL4y_20C
p169
sS'name_5'
p170
VL3y_20C
p171
sS'name_4'
p172
VL2y_20C
p173
sS'name_3'
p174
VL1y_20C
p175
sS'name_2'
p176
VBlockedBeam
p177
sS'name_1'
p178
VEmptyBeam(TempSensor)
p179
sg47
VLeonie_6m_setting sapmot D7.5
p180
sg49
I00
sS'trans_enabled_2'
p181
I00
sS'trans_enabled_1'
p182
I00
sS'scatt_time_10'
p183
F10800.0
sS'trans_enabled_4'
p184
I00
sS'trans_enabled_3'
p185
I00
sS'trans_enabled_6'
p186
I00
sS'trans_enabled_5'
p187
I00
sS'trans_enabled_8'
p188
I00
sS'trans_enabled_7'
p189
I00
sS'trans_enabled_9'
p190
I00
sS'scatt_enabled_1'
p191
I00
sS'name_10'
p192
VD2O_20C
p193
sS'scatt_enabled_3'
p194
I00
sS'scatt_enabled_2'
p195
I00
sS'scatt_enabled_9'
p196
I00
sS'scatt_enabled_8'
p197
I00
sS'trans_enabled_10'
p198
I00
sS'scatt_enabled_5'
p199
I00
sS'scatt_enabled_4'
p200
I00
sg70
Vsapmot('D7.5')
p201
sS'scatt_enabled_7'
p202
I01
sS'scatt_enabled_6'
p203
I00
sa.