(lp0
(dp1
S'scatt_setup'
p2
Vbs4(65.8)\u000aatt_pos(1)
p3
sS'thickness'
p4
F0.20000000298023224
sS'scatt_time'
p5
F10800.0
sS'scatt_time_5'
p6
F10800.0
sS'scatt_enabled_12'
p7
I01
sS'scatt_time_4'
p8
F10800.0
sS'scatt_enabled_11'
p9
I00
sS'scatt_time_7'
p10
F10800.0
sS'scatt_time_6'
p11
F10800.0
sS'scatt_time_9'
p12
F10800.0
sS'scatt_time_8'
p13
F10800.0
sS'scatt_enabled_10'
p14
I00
sS'trans_time_12'
p15
F600.0
sS'scatt_time_1'
p16
F3600.0
sS'scatt_time_3'
p17
F10800.0
sS'trans_time_11'
p18
F600.0
sS'scatt_time_2'
p19
F7200.0
sS'trans_time_10'
p20
F600.0
sS'trans_time_1'
p21
F600.0
sS'thickness_12'
p22
F0.10000000149011612
sS'trans_time_2'
p23
F600.0
sS'thickness_10'
p24
F0.20000000298023224
sS'trans_enabled'
p25
I01
sS'thickness_11'
p26
F0.10000000149011612
sS'trans_time_9'
p27
F600.0
sS'trans_time'
p28
F600.0
sS'trans_time_7'
p29
F600.0
sS'trans_time_8'
p30
F600.0
sS'trans_time_5'
p31
F600.0
sS'trans_time_6'
p32
F600.0
sS'trans_time_3'
p33
F600.0
sS'trans_time_4'
p34
F600.0
sS'trans_setup'
p35
Vatt_pos(2)\u000abs4(0.0)
p36
sS'name_9'
p37
Vd-chlorobenzene
p38
sS'name_8'
p39
VSample13
p40
sS'name_7'
p41
VDCM
p42
sS'name_6'
p43
VSample11
p44
sS'name_5'
p45
VCDCl3
p46
sS'name_4'
p47
VSample1
p48
sS'name_3'
p49
Vd-tol
p50
sS'name_2'
p51
VBlockedBeam
p52
sS'name_1'
p53
VEmptyBeam
p54
sS'title'
p55
V
p56
sS'scatt_enabled'
p57
I00
sS'scatt_time_11'
p58
F10800.0
sS'scatt_time_12'
p59
F3600.0
sS'trans_enabled_2'
p60
I00
sS'trans_enabled_1'
p61
I01
sS'scatt_time_10'
p62
F10800.0
sS'trans_enabled_4'
p63
I01
sS'trans_enabled_3'
p64
I01
sS'trans_enabled_6'
p65
I01
sS'trans_enabled_5'
p66
I01
sS'trans_enabled_8'
p67
I00
sS'trans_enabled_7'
p68
I00
sS'trans_enabled_9'
p69
I00
sS'scatt_enabled_1'
p70
I01
sS'name_10'
p71
VSample16
p72
sS'scatt_enabled_3'
p73
I01
sS'scatt_enabled_2'
p74
I01
sS'thickness_2'
p75
F0.20000000298023224
sS'name_11'
p76
VEmptyCell
p77
sS'thickness_1'
p78
F0.0
sS'name_12'
p79
VShota1
p80
sS'thickness_4'
p81
F0.20000000298023224
sS'scatt_enabled_9'
p82
I00
sS'thickness_3'
p83
F0.20000000298023224
sS'scatt_enabled_8'
p84
I00
sS'trans_enabled_12'
p85
I00
sS'thickness_6'
p86
F0.20000000298023224
sS'trans_enabled_11'
p87
I00
sS'thickness_5'
p88
F0.20000000298023224
sS'trans_enabled_10'
p89
I00
sS'scatt_enabled_5'
p90
I01
sS'thickness_8'
p91
F0.20000000298023224
sS'scatt_enabled_4'
p92
I01
sS'config'
p93
V
p94
sS'thickness_7'
p95
F0.20000000298023224
sS'scatt_enabled_7'
p96
I00
sS'scatt_enabled_6'
p97
I01
sS'thickness_9'
p98
F0.20000000298023224
sa(dp99
g2
Vbs4(65.8)\u000aatt_pos(1)
p100
sg4
F0.20000000298023224
sg5
F10800.0
sS'scatt_time_5'
p101
F10800.0
sS'scatt_enabled_12'
p102
I00
sS'scatt_time_4'
p103
F10800.0
sS'scatt_enabled_11'
p104
I00
sS'scatt_time_7'
p105
F10800.0
sS'scatt_time_6'
p106
F10800.0
sS'scatt_time_9'
p107
F10800.0
sS'scatt_time_8'
p108
F10800.0
sS'scatt_enabled_10'
p109
I00
sS'trans_time_12'
p110
F600.0
sS'scatt_time_1'
p111
F10800.0
sS'scatt_time_3'
p112
F10800.0
sS'trans_time_11'
p113
F600.0
sS'scatt_time_2'
p114
F7200.0
sS'trans_time_10'
p115
F600.0
sS'trans_time_1'
p116
F600.0
sS'thickness_12'
p117
F0.10000000149011612
sS'trans_time_2'
p118
F600.0
sS'thickness_10'
p119
F0.20000000298023224
sg25
I00
sS'thickness_11'
p120
F0.10000000149011612
sS'trans_time_9'
p121
F600.0
sg28
F600.0
sS'trans_time_7'
p122
F600.0
sS'trans_time_8'
p123
F600.0
sS'trans_time_5'
p124
F600.0
sS'trans_time_6'
p125
F600.0
sS'trans_time_3'
p126
F600.0
sS'trans_time_4'
p127
F600.0
sg35
Vatt_pos(2)\u000abs4(0.0)
p128
sS'name_9'
p129
Vd-chlorobenzene
p130
sS'name_8'
p131
VSample13
p132
sS'name_7'
p133
VDCM
p134
sS'name_6'
p135
VSample11
p136
sS'name_5'
p137
VCDCl3
p138
sS'name_4'
p139
VSample1
p140
sS'name_3'
p141
Vd-tol
p142
sS'name_2'
p143
VBlockedBeam
p144
sS'name_1'
p145
VEmptyBeam
p146
sg55
V2020_P8224_Shota_VSsetting
p147
sg57
I00
sS'scatt_time_11'
p148
F10800.0
sS'scatt_time_12'
p149
F10800.0
sS'trans_enabled_2'
p150
I00
sS'trans_enabled_1'
p151
I00
sS'scatt_time_10'
p152
F10800.0
sS'trans_enabled_4'
p153
I00
sS'trans_enabled_3'
p154
I00
sS'trans_enabled_6'
p155
I00
sS'trans_enabled_5'
p156
I00
sS'trans_enabled_8'
p157
I01
sS'trans_enabled_7'
p158
I00
sS'trans_enabled_9'
p159
I00
sS'scatt_enabled_1'
p160
I00
sS'name_10'
p161
VSample16
p162
sS'scatt_enabled_3'
p163
I00
sS'scatt_enabled_2'
p164
I00
sS'thickness_2'
p165
F0.20000000298023224
sS'name_11'
p166
VEmptyCell
p167
sS'thickness_1'
p168
F0.0
sS'name_12'
p169
VShota1
p170
sS'thickness_4'
p171
F0.20000000298023224
sS'scatt_enabled_9'
p172
I00
sS'thickness_3'
p173
F0.20000000298023224
sS'scatt_enabled_8'
p174
I01
sS'trans_enabled_12'
p175
I00
sS'thickness_6'
p176
F0.20000000298023224
sS'trans_enabled_11'
p177
I00
sS'thickness_5'
p178
F0.20000000298023224
sS'trans_enabled_10'
p179
I00
sS'scatt_enabled_5'
p180
I00
sS'thickness_8'
p181
F0.20000000298023224
sS'scatt_enabled_4'
p182
I00
sg93
Vnguide(5,'D40','D40')\u000aDetector.det = 7843\u000aDetector.curtaindet = 1044\u000aDetector.curtainl = 170\u000aDetector.curtainr = 385\u000aDetector.curtainu = 65\u000aDetector.curtaind = 150\u000aDetector.drive()
p183
sS'thickness_7'
p184
F0.20000000298023224
sS'scatt_enabled_7'
p185
I00
sS'scatt_enabled_6'
p186
I00
sS'thickness_9'
p187
F0.20000000298023224
sa.