(lp0
(dp1
S'scatt_setup'
p2
Vbs4(65.8)\u000aatt_pos(1)
p3
sS'thickness'
p4
F0.20000000298023224
sS'scatt_time'
p5
F2700.0
sS'scatt_time_5'
p6
F2700.0
sS'scatt_enabled_12'
p7
I00
sS'scatt_time_4'
p8
F2700.0
sS'scatt_enabled_11'
p9
I01
sS'scatt_time_7'
p10
F2700.0
sS'scatt_time_6'
p11
F2700.0
sS'scatt_time_9'
p12
F2700.0
sS'scatt_time_8'
p13
F2700.0
sS'scatt_enabled_10'
p14
I01
sS'trans_time_12'
p15
F300.0
sS'scatt_time_1'
p16
F2700.0
sS'scatt_time_3'
p17
F2700.0
sS'trans_time_11'
p18
F300.0
sS'scatt_time_2'
p19
F2700.0
sS'trans_time_10'
p20
F300.0
sS'trans_time_1'
p21
F300.0
sS'thickness_12'
p22
F0.20000000298023224
sS'trans_time_2'
p23
F300.0
sS'thickness_10'
p24
F0.20000000298023224
sS'trans_enabled'
p25
I00
sS'thickness_11'
p26
F0.20000000298023224
sS'trans_time_9'
p27
F300.0
sS'trans_time'
p28
F300.0
sS'trans_time_7'
p29
F300.0
sS'trans_time_8'
p30
F300.0
sS'trans_time_5'
p31
F300.0
sS'trans_time_6'
p32
F300.0
sS'trans_time_3'
p33
F300.0
sS'trans_time_4'
p34
F300.0
sS'trans_setup'
p35
Vatt_pos(2)\u000abs4(0.0)
p36
sS'name_9'
p37
VVK_PAPB10
p38
sS'name_8'
p39
VCB72
p40
sS'name_7'
p41
VCB71
p42
sS'name_6'
p43
VCB70
p44
sS'name_5'
p45
VCB69
p46
sS'name_4'
p47
VCB68_30C
p48
sS'name_3'
p49
VCB67_30C
p50
sS'name_2'
p51
VMV_P0_61NIRON
p52
sS'name_1'
p53
VMV_M0_61_END
p54
sS'title'
p55
V9601_2021_Mark setting_TOF
p56
sS'scatt_enabled'
p57
I00
sS'scatt_time_11'
p58
F2700.0
sS'scatt_time_12'
p59
F2700.0
sS'trans_enabled_2'
p60
I00
sS'trans_enabled_1'
p61
I00
sS'scatt_time_10'
p62
F2700.0
sS'trans_enabled_4'
p63
I00
sS'trans_enabled_3'
p64
I00
sS'trans_enabled_6'
p65
I00
sS'trans_enabled_5'
p66
I00
sS'trans_enabled_8'
p67
I00
sS'trans_enabled_7'
p68
I00
sS'trans_enabled_9'
p69
I00
sS'scatt_enabled_1'
p70
I00
sS'name_10'
p71
VCB65
p72
sS'scatt_enabled_3'
p73
I00
sS'scatt_enabled_2'
p74
I00
sS'thickness_2'
p75
F0.20000000298023224
sS'name_11'
p76
VCB66
p77
sS'thickness_1'
p78
F0.20000000298023224
sS'name_12'
p79
Vempty
p80
sS'thickness_4'
p81
F0.20000000298023224
sS'scatt_enabled_9'
p82
I00
sS'thickness_3'
p83
F0.20000000298023224
sS'scatt_enabled_8'
p84
I00
sS'trans_enabled_12'
p85
I00
sS'thickness_6'
p86
F0.20000000298023224
sS'trans_enabled_11'
p87
I01
sS'thickness_5'
p88
F0.20000000298023224
sS'trans_enabled_10'
p89
I01
sS'scatt_enabled_5'
p90
I00
sS'thickness_8'
p91
F0.20000000298023224
sS'scatt_enabled_4'
p92
I00
sS'config'
p93
Vsapmot('D12.5')
p94
sS'thickness_7'
p95
F0.20000000298023224
sS'scatt_enabled_7'
p96
I00
sS'scatt_enabled_6'
p97
I00
sS'thickness_9'
p98
F0.20000000298023224
sa(dp99
g2
Vbs4(65.8)\u000aatt_pos(1)
p100
sg4
F0.20000000298023224
sg5
F2700.0
sS'scatt_time_5'
p101
F2700.0
sS'scatt_enabled_12'
p102
I00
sS'scatt_time_4'
p103
F2700.0
sS'scatt_enabled_11'
p104
I00
sS'scatt_time_7'
p105
F2700.0
sS'scatt_time_6'
p106
F2700.0
sS'scatt_time_9'
p107
F2700.0
sS'scatt_time_8'
p108
F2700.0
sS'scatt_enabled_10'
p109
I00
sS'trans_time_12'
p110
F300.0
sS'scatt_time_1'
p111
F2700.0
sS'scatt_time_3'
p112
F2700.0
sS'trans_time_11'
p113
F300.0
sS'scatt_time_2'
p114
F2700.0
sS'trans_time_10'
p115
F300.0
sS'trans_time_1'
p116
F300.0
sS'thickness_12'
p117
F0.20000000298023224
sS'trans_time_2'
p118
F300.0
sS'thickness_10'
p119
F0.20000000298023224
sg25
I00
sS'thickness_11'
p120
F0.20000000298023224
sS'trans_time_9'
p121
F300.0
sg28
F300.0
sS'trans_time_7'
p122
F300.0
sS'trans_time_8'
p123
F300.0
sS'trans_time_5'
p124
F300.0
sS'trans_time_6'
p125
F300.0
sS'trans_time_3'
p126
F300.0
sS'trans_time_4'
p127
F300.0
sg35
Vatt_pos(2)\u000abs4(0.0)
p128
sS'name_9'
p129
VVK_PC20_35C
p130
sS'name_8'
p131
VVK_PC5_35C
p132
sS'name_7'
p133
VCB72_35C
p134
sS'name_6'
p135
VCB71_35C
p136
sS'name_5'
p137
VCB70_35C
p138
sS'name_4'
p139
VCB69_35C
p140
sS'name_3'
p141
VCB68_35C
p142
sS'name_2'
p143
VCB67_35C
p144
sS'name_1'
p145
VCB64_35C
p146
sg55
V9601_2021_Mark setting_TOF
p147
sg57
I00
sS'scatt_time_11'
p148
F2700.0
sS'scatt_time_12'
p149
F2700.0
sS'trans_enabled_2'
p150
I01
sS'trans_enabled_1'
p151
I01
sS'scatt_time_10'
p152
F2700.0
sS'trans_enabled_4'
p153
I01
sS'trans_enabled_3'
p154
I01
sS'trans_enabled_6'
p155
I01
sS'trans_enabled_5'
p156
I01
sS'trans_enabled_8'
p157
I01
sS'trans_enabled_7'
p158
I01
sS'trans_enabled_9'
p159
I01
sS'scatt_enabled_1'
p160
I01
sS'name_10'
p161
VCB65
p162
sS'scatt_enabled_3'
p163
I01
sS'scatt_enabled_2'
p164
I01
sS'thickness_2'
p165
F0.20000000298023224
sS'name_11'
p166
VCB66
p167
sS'thickness_1'
p168
F0.20000000298023224
sS'name_12'
p169
Vempty
p170
sS'thickness_4'
p171
F0.20000000298023224
sS'scatt_enabled_9'
p172
I01
sS'thickness_3'
p173
F0.20000000298023224
sS'scatt_enabled_8'
p174
I01
sS'trans_enabled_12'
p175
I00
sS'thickness_6'
p176
F0.20000000298023224
sS'trans_enabled_11'
p177
I00
sS'thickness_5'
p178
F0.20000000298023224
sS'trans_enabled_10'
p179
I00
sS'scatt_enabled_5'
p180
I01
sS'thickness_8'
p181
F0.20000000298023224
sS'scatt_enabled_4'
p182
I01
sg93
Vsapmot('D12.5')
p183
sS'thickness_7'
p184
F0.20000000298023224
sS'scatt_enabled_7'
p185
I01
sS'scatt_enabled_6'
p186
I01
sS'thickness_9'
p187
F0.20000000298023224
sa.