(lp0
(dp1
S'name_3'
p2
VRun2_5A_13m
p3
sS'name_2'
p4
V
p5
sS'name_1'
p6
V
p7
sS'scatt_setup'
p8
Vbs4(65.8)\u000aatt_pos(1)
p9
sS'scatt_time'
p10
F120.0
sS'scatt_time_5'
p11
F120.0
sS'scatt_time_4'
p12
F120.0
sS'title'
p13
VRheometer_Howard_13m_5A
p14
sS'scatt_enabled'
p15
I00
sS'scatt_time_1'
p16
F120.0
sS'scatt_time_3'
p17
F600.0
sS'scatt_time_2'
p18
F120.0
sS'trans_enabled_2'
p19
I00
sS'trans_enabled_1'
p20
I00
sS'trans_enabled_4'
p21
I00
sS'trans_enabled_3'
p22
I00
sS'trans_time_1'
p23
F60.0
sS'trans_time_2'
p24
F60.0
sS'trans_enabled_5'
p25
I00
sS'trans_enabled'
p26
I00
sS'trans_time'
p27
F60.0
sS'trans_time_5'
p28
F60.0
sS'trans_time_3'
p29
F60.0
sS'trans_time_4'
p30
F60.0
sS'scatt_enabled_1'
p31
I00
sS'scatt_enabled_3'
p32
I01
sS'scatt_enabled_2'
p33
I00
sS'trans_setup'
p34
Vatt_pos(3)\u000abs4(0.0)
p35
sS'scatt_enabled_5'
p36
I00
sS'config'
p37
Vnguide(2,'D40','D40')\u000aDetector.det =12842\u000aDetector.curtaindet = 5842\u000aDetector.curtainl = 280\u000aDetector.curtainr = 280\u000aDetector.curtainu = 150\u000aDetector.curtaind = 150\u000aDetector.drive()
p38
sS'scatt_enabled_4'
p39
I00
sS'name_5'
p40
VEmptyRheometer
p41
sS'name_4'
p42
V
p43
sa(dp44
S'name_3'
p45
VRun2_5A_13m_nb3
p46
sS'name_2'
p47
V
p48
sS'name_1'
p49
V
p50
sg8
Vbs4(65.8)\u000aatt_pos(1)
p51
sg10
F120.0
sS'scatt_time_5'
p52
F120.0
sS'scatt_time_4'
p53
F120.0
sg13
VRheometer_Howard_13m_5A
p54
sg15
I00
sS'scatt_time_1'
p55
F120.0
sS'scatt_time_3'
p56
F600.0
sS'scatt_time_2'
p57
F120.0
sS'trans_enabled_2'
p58
I00
sS'trans_enabled_1'
p59
I00
sS'trans_enabled_4'
p60
I00
sS'trans_enabled_3'
p61
I00
sS'trans_time_1'
p62
F60.0
sS'trans_time_2'
p63
F60.0
sS'trans_enabled_5'
p64
I00
sg26
I00
sg27
F60.0
sS'trans_time_5'
p65
F60.0
sS'trans_time_3'
p66
F60.0
sS'trans_time_4'
p67
F60.0
sS'scatt_enabled_1'
p68
I00
sS'scatt_enabled_3'
p69
I01
sS'scatt_enabled_2'
p70
I00
sg34
Vatt_pos(3)\u000abs4(0.0)
p71
sS'scatt_enabled_5'
p72
I00
sg37
V
p73
sS'scatt_enabled_4'
p74
I00
sS'name_5'
p75
VEmptyRheometer
p76
sS'name_4'
p77
V
p78
sa(dp79
S'name_3'
p80
VRun2_5A_13m_nb3
p81
sS'name_2'
p82
V
p83
sS'name_1'
p84
V
p85
sg8
Vbs4(65.8)\u000aatt_pos(1)
p86
sg10
F120.0
sS'scatt_time_5'
p87
F120.0
sS'scatt_time_4'
p88
F120.0
sg13
VRheometer_Howard_13m_5A
p89
sg15
I00
sS'scatt_time_1'
p90
F120.0
sS'scatt_time_3'
p91
F600.0
sS'scatt_time_2'
p92
F120.0
sS'trans_enabled_2'
p93
I00
sS'trans_enabled_1'
p94
I00
sS'trans_enabled_4'
p95
I00
sS'trans_enabled_3'
p96
I00
sS'trans_time_1'
p97
F60.0
sS'trans_time_2'
p98
F60.0
sS'trans_enabled_5'
p99
I00
sg26
I00
sg27
F60.0
sS'trans_time_5'
p100
F60.0
sS'trans_time_3'
p101
F60.0
sS'trans_time_4'
p102
F60.0
sS'scatt_enabled_1'
p103
I00
sS'scatt_enabled_3'
p104
I01
sS'scatt_enabled_2'
p105
I00
sg34
Vatt_pos(3)\u000abs4(0.0)
p106
sS'scatt_enabled_5'
p107
I00
sg37
V
p108
sS'scatt_enabled_4'
p109
I00
sS'name_5'
p110
VEmptyRheometer
p111
sS'name_4'
p112
V
p113
sa(dp114
S'name_3'
p115
VRun2_5A_13m_nb3
p116
sS'name_2'
p117
V
p118
sS'name_1'
p119
V
p120
sg8
Vbs4(65.8)\u000aatt_pos(1)
p121
sg10
F120.0
sS'scatt_time_5'
p122
F120.0
sS'scatt_time_4'
p123
F120.0
sg13
VRheometer_Howard_13m_5A
p124
sg15
I00
sS'scatt_time_1'
p125
F120.0
sS'scatt_time_3'
p126
F600.0
sS'scatt_time_2'
p127
F120.0
sS'trans_enabled_2'
p128
I00
sS'trans_enabled_1'
p129
I00
sS'trans_enabled_4'
p130
I00
sS'trans_enabled_3'
p131
I00
sS'trans_time_1'
p132
F60.0
sS'trans_time_2'
p133
F60.0
sS'trans_enabled_5'
p134
I00
sg26
I00
sg27
F60.0
sS'trans_time_5'
p135
F60.0
sS'trans_time_3'
p136
F60.0
sS'trans_time_4'
p137
F60.0
sS'scatt_enabled_1'
p138
I00
sS'scatt_enabled_3'
p139
I01
sS'scatt_enabled_2'
p140
I00
sg34
Vatt_pos(3)\u000abs4(0.0)
p141
sS'scatt_enabled_5'
p142
I00
sg37
V
p143
sS'scatt_enabled_4'
p144
I00
sS'name_5'
p145
VEmptyRheometer
p146
sS'name_4'
p147
V
p148
sa(dp149
S'name_3'
p150
VRun2_5A_13m_nb3
p151
sS'name_2'
p152
V
p153
sS'name_1'
p154
V
p155
sg8
Vbs4(65.8)\u000aatt_pos(1)
p156
sg10
F120.0
sS'scatt_time_5'
p157
F120.0
sS'scatt_time_4'
p158
F120.0
sg13
VRheometer_Howard_13m_5A
p159
sg15
I00
sS'scatt_time_1'
p160
F120.0
sS'scatt_time_3'
p161
F600.0
sS'scatt_time_2'
p162
F120.0
sS'trans_enabled_2'
p163
I00
sS'trans_enabled_1'
p164
I00
sS'trans_enabled_4'
p165
I00
sS'trans_enabled_3'
p166
I00
sS'trans_time_1'
p167
F60.0
sS'trans_time_2'
p168
F60.0
sS'trans_enabled_5'
p169
I00
sg26
I00
sg27
F60.0
sS'trans_time_5'
p170
F60.0
sS'trans_time_3'
p171
F60.0
sS'trans_time_4'
p172
F60.0
sS'scatt_enabled_1'
p173
I00
sS'scatt_enabled_3'
p174
I01
sS'scatt_enabled_2'
p175
I00
sg34
Vatt_pos(3)\u000abs4(0.0)
p176
sS'scatt_enabled_5'
p177
I00
sg37
V
p178
sS'scatt_enabled_4'
p179
I00
sS'name_5'
p180
VEmptyRheometer
p181
sS'name_4'
p182
V
p183
sa(dp184
S'name_3'
p185
VRun2_5A_13m_nb3
p186
sS'name_2'
p187
V
p188
sS'name_1'
p189
V
p190
sg8
Vbs4(65.8)\u000aatt_pos(1)
p191
sg10
F120.0
sS'scatt_time_5'
p192
F120.0
sS'scatt_time_4'
p193
F120.0
sg13
VRheometer_Howard_13m_5A
p194
sg15
I00
sS'scatt_time_1'
p195
F120.0
sS'scatt_time_3'
p196
F600.0
sS'scatt_time_2'
p197
F120.0
sS'trans_enabled_2'
p198
I00
sS'trans_enabled_1'
p199
I00
sS'trans_enabled_4'
p200
I00
sS'trans_enabled_3'
p201
I00
sS'trans_time_1'
p202
F60.0
sS'trans_time_2'
p203
F60.0
sS'trans_enabled_5'
p204
I00
sg26
I00
sg27
F60.0
sS'trans_time_5'
p205
F60.0
sS'trans_time_3'
p206
F60.0
sS'trans_time_4'
p207
F60.0
sS'scatt_enabled_1'
p208
I00
sS'scatt_enabled_3'
p209
I01
sS'scatt_enabled_2'
p210
I00
sg34
Vatt_pos(3)\u000abs4(0.0)
p211
sS'scatt_enabled_5'
p212
I00
sg37
V
p213
sS'scatt_enabled_4'
p214
I00
sS'name_5'
p215
VEmptyRheometer
p216
sS'name_4'
p217
V
p218
sa(dp219
S'name_3'
p220
VRun2_5A_13m_nb3
p221
sS'name_2'
p222
V
p223
sS'name_1'
p224
V
p225
sg8
Vbs4(65.8)\u000aatt_pos(1)
p226
sg10
F120.0
sS'scatt_time_5'
p227
F120.0
sS'scatt_time_4'
p228
F120.0
sg13
VRheometer_Howard_13m_5A
p229
sg15
I00
sS'scatt_time_1'
p230
F120.0
sS'scatt_time_3'
p231
F600.0
sS'scatt_time_2'
p232
F120.0
sS'trans_enabled_2'
p233
I00
sS'trans_enabled_1'
p234
I00
sS'trans_enabled_4'
p235
I00
sS'trans_enabled_3'
p236
I00
sS'trans_time_1'
p237
F60.0
sS'trans_time_2'
p238
F60.0
sS'trans_enabled_5'
p239
I00
sg26
I00
sg27
F60.0
sS'trans_time_5'
p240
F60.0
sS'trans_time_3'
p241
F60.0
sS'trans_time_4'
p242
F60.0
sS'scatt_enabled_1'
p243
I00
sS'scatt_enabled_3'
p244
I01
sS'scatt_enabled_2'
p245
I00
sg34
Vatt_pos(3)\u000abs4(0.0)
p246
sS'scatt_enabled_5'
p247
I00
sg37
V
p248
sS'scatt_enabled_4'
p249
I00
sS'name_5'
p250
VEmptyRheometer
p251
sS'name_4'
p252
V
p253
sa(dp254
S'name_3'
p255
VRun2_5A_13m_nb3
p256
sS'name_2'
p257
V
p258
sS'name_1'
p259
V
p260
sg8
Vbs4(65.8)\u000aatt_pos(1)
p261
sg10
F120.0
sS'scatt_time_5'
p262
F120.0
sS'scatt_time_4'
p263
F120.0
sg13
VRheometer_Howard_13m_5A
p264
sg15
I00
sS'scatt_time_1'
p265
F120.0
sS'scatt_time_3'
p266
F600.0
sS'scatt_time_2'
p267
F120.0
sS'trans_enabled_2'
p268
I00
sS'trans_enabled_1'
p269
I00
sS'trans_enabled_4'
p270
I00
sS'trans_enabled_3'
p271
I00
sS'trans_time_1'
p272
F60.0
sS'trans_time_2'
p273
F60.0
sS'trans_enabled_5'
p274
I00
sg26
I00
sg27
F60.0
sS'trans_time_5'
p275
F60.0
sS'trans_time_3'
p276
F60.0
sS'trans_time_4'
p277
F60.0
sS'scatt_enabled_1'
p278
I00
sS'scatt_enabled_3'
p279
I01
sS'scatt_enabled_2'
p280
I00
sg34
Vatt_pos(3)\u000abs4(0.0)
p281
sS'scatt_enabled_5'
p282
I00
sg37
V
p283
sS'scatt_enabled_4'
p284
I00
sS'name_5'
p285
VEmptyRheometer
p286
sS'name_4'
p287
V
p288
sa(dp289
S'name_3'
p290
VRun2_5A_13m_nb3
p291
sS'name_2'
p292
V
p293
sS'name_1'
p294
V
p295
sg8
Vbs4(65.8)\u000aatt_pos(1)
p296
sg10
F120.0
sS'scatt_time_5'
p297
F120.0
sS'scatt_time_4'
p298
F120.0
sg13
VRheometer_Howard_13m_5A
p299
sg15
I00
sS'scatt_time_1'
p300
F120.0
sS'scatt_time_3'
p301
F600.0
sS'scatt_time_2'
p302
F120.0
sS'trans_enabled_2'
p303
I00
sS'trans_enabled_1'
p304
I00
sS'trans_enabled_4'
p305
I00
sS'trans_enabled_3'
p306
I00
sS'trans_time_1'
p307
F60.0
sS'trans_time_2'
p308
F60.0
sS'trans_enabled_5'
p309
I00
sg26
I00
sg27
F60.0
sS'trans_time_5'
p310
F60.0
sS'trans_time_3'
p311
F60.0
sS'trans_time_4'
p312
F60.0
sS'scatt_enabled_1'
p313
I00
sS'scatt_enabled_3'
p314
I01
sS'scatt_enabled_2'
p315
I00
sg34
Vatt_pos(3)\u000abs4(0.0)
p316
sS'scatt_enabled_5'
p317
I00
sg37
V
p318
sS'scatt_enabled_4'
p319
I00
sS'name_5'
p320
VEmptyRheometer
p321
sS'name_4'
p322
V
p323
sa(dp324
S'name_3'
p325
VRun2_5A_13m_nb3
p326
sS'name_2'
p327
V
p328
sS'name_1'
p329
V
p330
sg8
Vbs4(65.8)\u000aatt_pos(1)
p331
sg10
F120.0
sS'scatt_time_5'
p332
F120.0
sS'scatt_time_4'
p333
F120.0
sg13
VRheometer_Howard_13m_5A
p334
sg15
I00
sS'scatt_time_1'
p335
F120.0
sS'scatt_time_3'
p336
F600.0
sS'scatt_time_2'
p337
F120.0
sS'trans_enabled_2'
p338
I00
sS'trans_enabled_1'
p339
I00
sS'trans_enabled_4'
p340
I00
sS'trans_enabled_3'
p341
I00
sS'trans_time_1'
p342
F60.0
sS'trans_time_2'
p343
F60.0
sS'trans_enabled_5'
p344
I00
sg26
I00
sg27
F60.0
sS'trans_time_5'
p345
F60.0
sS'trans_time_3'
p346
F60.0
sS'trans_time_4'
p347
F60.0
sS'scatt_enabled_1'
p348
I00
sS'scatt_enabled_3'
p349
I01
sS'scatt_enabled_2'
p350
I00
sg34
Vatt_pos(3)\u000abs4(0.0)
p351
sS'scatt_enabled_5'
p352
I00
sg37
V
p353
sS'scatt_enabled_4'
p354
I00
sS'name_5'
p355
VEmptyRheometer
p356
sS'name_4'
p357
V
p358
sa(dp359
S'name_3'
p360
VRun2_5A_13m_nb3
p361
sS'name_2'
p362
V
p363
sS'name_1'
p364
V
p365
sg8
Vbs4(65.8)\u000aatt_pos(1)
p366
sg10
F120.0
sS'scatt_time_5'
p367
F120.0
sS'scatt_time_4'
p368
F120.0
sg13
VRheometer_Howard_13m_5A
p369
sg15
I00
sS'scatt_time_1'
p370
F120.0
sS'scatt_time_3'
p371
F600.0
sS'scatt_time_2'
p372
F120.0
sS'trans_enabled_2'
p373
I00
sS'trans_enabled_1'
p374
I00
sS'trans_enabled_4'
p375
I00
sS'trans_enabled_3'
p376
I00
sS'trans_time_1'
p377
F60.0
sS'trans_time_2'
p378
F60.0
sS'trans_enabled_5'
p379
I00
sg26
I00
sg27
F60.0
sS'trans_time_5'
p380
F60.0
sS'trans_time_3'
p381
F60.0
sS'trans_time_4'
p382
F60.0
sS'scatt_enabled_1'
p383
I00
sS'scatt_enabled_3'
p384
I01
sS'scatt_enabled_2'
p385
I00
sg34
Vatt_pos(3)\u000abs4(0.0)
p386
sS'scatt_enabled_5'
p387
I00
sg37
V
p388
sS'scatt_enabled_4'
p389
I00
sS'name_5'
p390
VEmptyRheometer
p391
sS'name_4'
p392
V
p393
sa(dp394
S'name_3'
p395
VRun2_5A_13m_nb3
p396
sS'name_2'
p397
V
p398
sS'name_1'
p399
V
p400
sg8
Vbs4(65.8)\u000aatt_pos(1)
p401
sg10
F120.0
sS'scatt_time_5'
p402
F120.0
sS'scatt_time_4'
p403
F120.0
sg13
VRheometer_Howard_13m_5A
p404
sg15
I00
sS'scatt_time_1'
p405
F120.0
sS'scatt_time_3'
p406
F600.0
sS'scatt_time_2'
p407
F120.0
sS'trans_enabled_2'
p408
I00
sS'trans_enabled_1'
p409
I00
sS'trans_enabled_4'
p410
I00
sS'trans_enabled_3'
p411
I00
sS'trans_time_1'
p412
F60.0
sS'trans_time_2'
p413
F60.0
sS'trans_enabled_5'
p414
I00
sg26
I00
sg27
F60.0
sS'trans_time_5'
p415
F60.0
sS'trans_time_3'
p416
F60.0
sS'trans_time_4'
p417
F60.0
sS'scatt_enabled_1'
p418
I00
sS'scatt_enabled_3'
p419
I01
sS'scatt_enabled_2'
p420
I00
sg34
Vatt_pos(3)\u000abs4(0.0)
p421
sS'scatt_enabled_5'
p422
I00
sg37
V
p423
sS'scatt_enabled_4'
p424
I00
sS'name_5'
p425
VEmptyRheometer
p426
sS'name_4'
p427
V
p428
sa(dp429
S'name_3'
p430
VRun2_5A_13m_nb3
p431
sS'name_2'
p432
V
p433
sS'name_1'
p434
V
p435
sg8
Vbs4(65.8)\u000aatt_pos(1)
p436
sg10
F120.0
sS'scatt_time_5'
p437
F120.0
sS'scatt_time_4'
p438
F120.0
sg13
VRheometer_Howard_13m_5A
p439
sg15
I00
sS'scatt_time_1'
p440
F120.0
sS'scatt_time_3'
p441
F600.0
sS'scatt_time_2'
p442
F120.0
sS'trans_enabled_2'
p443
I00
sS'trans_enabled_1'
p444
I00
sS'trans_enabled_4'
p445
I00
sS'trans_enabled_3'
p446
I00
sS'trans_time_1'
p447
F60.0
sS'trans_time_2'
p448
F60.0
sS'trans_enabled_5'
p449
I00
sg26
I00
sg27
F60.0
sS'trans_time_5'
p450
F60.0
sS'trans_time_3'
p451
F60.0
sS'trans_time_4'
p452
F60.0
sS'scatt_enabled_1'
p453
I00
sS'scatt_enabled_3'
p454
I01
sS'scatt_enabled_2'
p455
I00
sg34
Vatt_pos(3)\u000abs4(0.0)
p456
sS'scatt_enabled_5'
p457
I00
sg37
V
p458
sS'scatt_enabled_4'
p459
I00
sS'name_5'
p460
VEmptyRheometer
p461
sS'name_4'
p462
V
p463
sa(dp464
S'name_3'
p465
VRun2_5A_13m_nb3
p466
sS'name_2'
p467
V
p468
sS'name_1'
p469
V
p470
sg8
Vbs4(65.8)\u000aatt_pos(1)
p471
sg10
F120.0
sS'scatt_time_5'
p472
F120.0
sS'scatt_time_4'
p473
F120.0
sg13
VRheometer_Howard_13m_5A
p474
sg15
I00
sS'scatt_time_1'
p475
F120.0
sS'scatt_time_3'
p476
F600.0
sS'scatt_time_2'
p477
F120.0
sS'trans_enabled_2'
p478
I00
sS'trans_enabled_1'
p479
I00
sS'trans_enabled_4'
p480
I00
sS'trans_enabled_3'
p481
I00
sS'trans_time_1'
p482
F60.0
sS'trans_time_2'
p483
F60.0
sS'trans_enabled_5'
p484
I00
sg26
I00
sg27
F60.0
sS'trans_time_5'
p485
F60.0
sS'trans_time_3'
p486
F60.0
sS'trans_time_4'
p487
F60.0
sS'scatt_enabled_1'
p488
I00
sS'scatt_enabled_3'
p489
I01
sS'scatt_enabled_2'
p490
I00
sg34
Vatt_pos(3)\u000abs4(0.0)
p491
sS'scatt_enabled_5'
p492
I00
sg37
V
p493
sS'scatt_enabled_4'
p494
I00
sS'name_5'
p495
VEmptyRheometer
p496
sS'name_4'
p497
V
p498
sa(dp499
S'name_3'
p500
VRun2_5A_13m_nb3
p501
sS'name_2'
p502
V
p503
sS'name_1'
p504
V
p505
sg8
Vbs4(65.8)\u000aatt_pos(1)
p506
sg10
F120.0
sS'scatt_time_5'
p507
F120.0
sS'scatt_time_4'
p508
F120.0
sg13
VRheometer_Howard_13m_5A
p509
sg15
I00
sS'scatt_time_1'
p510
F120.0
sS'scatt_time_3'
p511
F600.0
sS'scatt_time_2'
p512
F120.0
sS'trans_enabled_2'
p513
I00
sS'trans_enabled_1'
p514
I00
sS'trans_enabled_4'
p515
I00
sS'trans_enabled_3'
p516
I00
sS'trans_time_1'
p517
F60.0
sS'trans_time_2'
p518
F60.0
sS'trans_enabled_5'
p519
I00
sg26
I00
sg27
F60.0
sS'trans_time_5'
p520
F60.0
sS'trans_time_3'
p521
F60.0
sS'trans_time_4'
p522
F60.0
sS'scatt_enabled_1'
p523
I00
sS'scatt_enabled_3'
p524
I01
sS'scatt_enabled_2'
p525
I00
sg34
Vatt_pos(3)\u000abs4(0.0)
p526
sS'scatt_enabled_5'
p527
I00
sg37
V
p528
sS'scatt_enabled_4'
p529
I00
sS'name_5'
p530
VEmptyRheometer
p531
sS'name_4'
p532
V
p533
sa(dp534
S'name_3'
p535
VRun2_5A_13m_nb3
p536
sS'name_2'
p537
V
p538
sS'name_1'
p539
V
p540
sg8
Vbs4(65.8)\u000aatt_pos(1)
p541
sg10
F120.0
sS'scatt_time_5'
p542
F120.0
sS'scatt_time_4'
p543
F120.0
sg13
VRheometer_Howard_13m_5A
p544
sg15
I00
sS'scatt_time_1'
p545
F120.0
sS'scatt_time_3'
p546
F600.0
sS'scatt_time_2'
p547
F120.0
sS'trans_enabled_2'
p548
I00
sS'trans_enabled_1'
p549
I00
sS'trans_enabled_4'
p550
I00
sS'trans_enabled_3'
p551
I00
sS'trans_time_1'
p552
F60.0
sS'trans_time_2'
p553
F60.0
sS'trans_enabled_5'
p554
I00
sg26
I00
sg27
F60.0
sS'trans_time_5'
p555
F60.0
sS'trans_time_3'
p556
F60.0
sS'trans_time_4'
p557
F60.0
sS'scatt_enabled_1'
p558
I00
sS'scatt_enabled_3'
p559
I01
sS'scatt_enabled_2'
p560
I00
sg34
Vatt_pos(3)\u000abs4(0.0)
p561
sS'scatt_enabled_5'
p562
I00
sg37
V
p563
sS'scatt_enabled_4'
p564
I00
sS'name_5'
p565
VEmptyRheometer
p566
sS'name_4'
p567
V
p568
sa(dp569
S'name_3'
p570
VRun2_5A_13m_nb3
p571
sS'name_2'
p572
V
p573
sS'name_1'
p574
V
p575
sg8
Vbs4(65.8)\u000aatt_pos(1)
p576
sg10
F120.0
sS'scatt_time_5'
p577
F120.0
sS'scatt_time_4'
p578
F120.0
sg13
VRheometer_Howard_13m_5A
p579
sg15
I00
sS'scatt_time_1'
p580
F120.0
sS'scatt_time_3'
p581
F600.0
sS'scatt_time_2'
p582
F120.0
sS'trans_enabled_2'
p583
I00
sS'trans_enabled_1'
p584
I00
sS'trans_enabled_4'
p585
I00
sS'trans_enabled_3'
p586
I00
sS'trans_time_1'
p587
F60.0
sS'trans_time_2'
p588
F60.0
sS'trans_enabled_5'
p589
I00
sg26
I00
sg27
F60.0
sS'trans_time_5'
p590
F60.0
sS'trans_time_3'
p591
F60.0
sS'trans_time_4'
p592
F60.0
sS'scatt_enabled_1'
p593
I00
sS'scatt_enabled_3'
p594
I01
sS'scatt_enabled_2'
p595
I00
sg34
Vatt_pos(3)\u000abs4(0.0)
p596
sS'scatt_enabled_5'
p597
I00
sg37
V
p598
sS'scatt_enabled_4'
p599
I00
sS'name_5'
p600
VEmptyRheometer
p601
sS'name_4'
p602
V
p603
sa(dp604
S'name_3'
p605
VRun2_5A_13m_nb3
p606
sS'name_2'
p607
V
p608
sS'name_1'
p609
V
p610
sg8
Vbs4(65.8)\u000aatt_pos(1)
p611
sg10
F120.0
sS'scatt_time_5'
p612
F120.0
sS'scatt_time_4'
p613
F120.0
sg13
VRheometer_Howard_13m_5A
p614
sg15
I00
sS'scatt_time_1'
p615
F120.0
sS'scatt_time_3'
p616
F600.0
sS'scatt_time_2'
p617
F120.0
sS'trans_enabled_2'
p618
I00
sS'trans_enabled_1'
p619
I00
sS'trans_enabled_4'
p620
I00
sS'trans_enabled_3'
p621
I00
sS'trans_time_1'
p622
F60.0
sS'trans_time_2'
p623
F60.0
sS'trans_enabled_5'
p624
I00
sg26
I00
sg27
F60.0
sS'trans_time_5'
p625
F60.0
sS'trans_time_3'
p626
F60.0
sS'trans_time_4'
p627
F60.0
sS'scatt_enabled_1'
p628
I00
sS'scatt_enabled_3'
p629
I01
sS'scatt_enabled_2'
p630
I00
sg34
Vatt_pos(3)\u000abs4(0.0)
p631
sS'scatt_enabled_5'
p632
I00
sg37
V
p633
sS'scatt_enabled_4'
p634
I00
sS'name_5'
p635
VEmptyRheometer
p636
sS'name_4'
p637
V
p638
sa(dp639
S'name_3'
p640
VRun2_5A_13m_nb3
p641
sS'name_2'
p642
V
p643
sS'name_1'
p644
V
p645
sg8
Vbs4(65.8)\u000aatt_pos(1)
p646
sg10
F120.0
sS'scatt_time_5'
p647
F120.0
sS'scatt_time_4'
p648
F120.0
sg13
VRheometer_Howard_13m_5A
p649
sg15
I00
sS'scatt_time_1'
p650
F120.0
sS'scatt_time_3'
p651
F600.0
sS'scatt_time_2'
p652
F120.0
sS'trans_enabled_2'
p653
I00
sS'trans_enabled_1'
p654
I00
sS'trans_enabled_4'
p655
I00
sS'trans_enabled_3'
p656
I00
sS'trans_time_1'
p657
F60.0
sS'trans_time_2'
p658
F60.0
sS'trans_enabled_5'
p659
I00
sg26
I00
sg27
F60.0
sS'trans_time_5'
p660
F60.0
sS'trans_time_3'
p661
F60.0
sS'trans_time_4'
p662
F60.0
sS'scatt_enabled_1'
p663
I00
sS'scatt_enabled_3'
p664
I01
sS'scatt_enabled_2'
p665
I00
sg34
Vatt_pos(3)\u000abs4(0.0)
p666
sS'scatt_enabled_5'
p667
I00
sg37
V
p668
sS'scatt_enabled_4'
p669
I00
sS'name_5'
p670
VEmptyRheometer
p671
sS'name_4'
p672
V
p673
sa(dp674
S'name_3'
p675
VRun2_5A_13m_nb3
p676
sS'name_2'
p677
V
p678
sS'name_1'
p679
V
p680
sg8
Vbs4(65.8)\u000aatt_pos(1)
p681
sg10
F120.0
sS'scatt_time_5'
p682
F120.0
sS'scatt_time_4'
p683
F120.0
sg13
VRheometer_Howard_13m_5A
p684
sg15
I00
sS'scatt_time_1'
p685
F120.0
sS'scatt_time_3'
p686
F600.0
sS'scatt_time_2'
p687
F120.0
sS'trans_enabled_2'
p688
I00
sS'trans_enabled_1'
p689
I00
sS'trans_enabled_4'
p690
I00
sS'trans_enabled_3'
p691
I00
sS'trans_time_1'
p692
F60.0
sS'trans_time_2'
p693
F60.0
sS'trans_enabled_5'
p694
I00
sg26
I00
sg27
F60.0
sS'trans_time_5'
p695
F60.0
sS'trans_time_3'
p696
F60.0
sS'trans_time_4'
p697
F60.0
sS'scatt_enabled_1'
p698
I00
sS'scatt_enabled_3'
p699
I01
sS'scatt_enabled_2'
p700
I00
sg34
Vatt_pos(3)\u000abs4(0.0)
p701
sS'scatt_enabled_5'
p702
I00
sg37
V
p703
sS'scatt_enabled_4'
p704
I00
sS'name_5'
p705
VEmptyRheometer
p706
sS'name_4'
p707
V
p708
sa(dp709
S'name_3'
p710
VRun2_5A_13m_nb3
p711
sS'name_2'
p712
V
p713
sS'name_1'
p714
V
p715
sg8
Vbs4(65.8)\u000aatt_pos(1)
p716
sg10
F120.0
sS'scatt_time_5'
p717
F120.0
sS'scatt_time_4'
p718
F120.0
sg13
VRheometer_Howard_13m_5A
p719
sg15
I00
sS'scatt_time_1'
p720
F120.0
sS'scatt_time_3'
p721
F600.0
sS'scatt_time_2'
p722
F120.0
sS'trans_enabled_2'
p723
I00
sS'trans_enabled_1'
p724
I00
sS'trans_enabled_4'
p725
I00
sS'trans_enabled_3'
p726
I00
sS'trans_time_1'
p727
F60.0
sS'trans_time_2'
p728
F60.0
sS'trans_enabled_5'
p729
I00
sg26
I00
sg27
F60.0
sS'trans_time_5'
p730
F60.0
sS'trans_time_3'
p731
F60.0
sS'trans_time_4'
p732
F60.0
sS'scatt_enabled_1'
p733
I00
sS'scatt_enabled_3'
p734
I01
sS'scatt_enabled_2'
p735
I00
sg34
Vatt_pos(3)\u000abs4(0.0)
p736
sS'scatt_enabled_5'
p737
I00
sg37
V
p738
sS'scatt_enabled_4'
p739
I00
sS'name_5'
p740
VEmptyRheometer
p741
sS'name_4'
p742
V
p743
sa(dp744
S'name_3'
p745
VRun2_5A_13m_nb3
p746
sS'name_2'
p747
V
p748
sS'name_1'
p749
V
p750
sg8
Vbs4(65.8)\u000aatt_pos(1)
p751
sg10
F120.0
sS'scatt_time_5'
p752
F120.0
sS'scatt_time_4'
p753
F120.0
sg13
VRheometer_Howard_13m_5A
p754
sg15
I00
sS'scatt_time_1'
p755
F120.0
sS'scatt_time_3'
p756
F600.0
sS'scatt_time_2'
p757
F120.0
sS'trans_enabled_2'
p758
I00
sS'trans_enabled_1'
p759
I00
sS'trans_enabled_4'
p760
I00
sS'trans_enabled_3'
p761
I00
sS'trans_time_1'
p762
F60.0
sS'trans_time_2'
p763
F60.0
sS'trans_enabled_5'
p764
I00
sg26
I00
sg27
F60.0
sS'trans_time_5'
p765
F60.0
sS'trans_time_3'
p766
F60.0
sS'trans_time_4'
p767
F60.0
sS'scatt_enabled_1'
p768
I00
sS'scatt_enabled_3'
p769
I01
sS'scatt_enabled_2'
p770
I00
sg34
Vatt_pos(3)\u000abs4(0.0)
p771
sS'scatt_enabled_5'
p772
I00
sg37
V
p773
sS'scatt_enabled_4'
p774
I00
sS'name_5'
p775
VEmptyRheometer
p776
sS'name_4'
p777
V
p778
sa(dp779
S'name_3'
p780
VRun2_5A_13m_nb3
p781
sS'name_2'
p782
V
p783
sS'name_1'
p784
V
p785
sg8
Vbs4(65.8)\u000aatt_pos(1)
p786
sg10
F120.0
sS'scatt_time_5'
p787
F120.0
sS'scatt_time_4'
p788
F120.0
sg13
VRheometer_Howard_13m_5A
p789
sg15
I00
sS'scatt_time_1'
p790
F120.0
sS'scatt_time_3'
p791
F600.0
sS'scatt_time_2'
p792
F120.0
sS'trans_enabled_2'
p793
I00
sS'trans_enabled_1'
p794
I00
sS'trans_enabled_4'
p795
I00
sS'trans_enabled_3'
p796
I00
sS'trans_time_1'
p797
F60.0
sS'trans_time_2'
p798
F60.0
sS'trans_enabled_5'
p799
I00
sg26
I00
sg27
F60.0
sS'trans_time_5'
p800
F60.0
sS'trans_time_3'
p801
F60.0
sS'trans_time_4'
p802
F60.0
sS'scatt_enabled_1'
p803
I00
sS'scatt_enabled_3'
p804
I01
sS'scatt_enabled_2'
p805
I00
sg34
Vatt_pos(3)\u000abs4(0.0)
p806
sS'scatt_enabled_5'
p807
I00
sg37
V
p808
sS'scatt_enabled_4'
p809
I00
sS'name_5'
p810
VEmptyRheometer
p811
sS'name_4'
p812
V
p813
sa(dp814
S'name_3'
p815
VRun2_5A_13m_nb3
p816
sS'name_2'
p817
V
p818
sS'name_1'
p819
V
p820
sg8
Vbs4(65.8)\u000aatt_pos(1)
p821
sg10
F120.0
sS'scatt_time_5'
p822
F120.0
sS'scatt_time_4'
p823
F120.0
sg13
VRheometer_Howard_13m_5A
p824
sg15
I00
sS'scatt_time_1'
p825
F120.0
sS'scatt_time_3'
p826
F600.0
sS'scatt_time_2'
p827
F120.0
sS'trans_enabled_2'
p828
I00
sS'trans_enabled_1'
p829
I00
sS'trans_enabled_4'
p830
I00
sS'trans_enabled_3'
p831
I00
sS'trans_time_1'
p832
F60.0
sS'trans_time_2'
p833
F60.0
sS'trans_enabled_5'
p834
I00
sg26
I00
sg27
F60.0
sS'trans_time_5'
p835
F60.0
sS'trans_time_3'
p836
F60.0
sS'trans_time_4'
p837
F60.0
sS'scatt_enabled_1'
p838
I00
sS'scatt_enabled_3'
p839
I01
sS'scatt_enabled_2'
p840
I00
sg34
Vatt_pos(3)\u000abs4(0.0)
p841
sS'scatt_enabled_5'
p842
I00
sg37
V
p843
sS'scatt_enabled_4'
p844
I00
sS'name_5'
p845
VEmptyRheometer
p846
sS'name_4'
p847
V
p848
sa(dp849
S'name_3'
p850
VRun2_5A_13m_nb3
p851
sS'name_2'
p852
V
p853
sS'name_1'
p854
V
p855
sg8
Vbs4(65.8)\u000aatt_pos(1)
p856
sg10
F120.0
sS'scatt_time_5'
p857
F120.0
sS'scatt_time_4'
p858
F120.0
sg13
VRheometer_Howard_13m_5A
p859
sg15
I00
sS'scatt_time_1'
p860
F120.0
sS'scatt_time_3'
p861
F600.0
sS'scatt_time_2'
p862
F120.0
sS'trans_enabled_2'
p863
I00
sS'trans_enabled_1'
p864
I00
sS'trans_enabled_4'
p865
I00
sS'trans_enabled_3'
p866
I00
sS'trans_time_1'
p867
F60.0
sS'trans_time_2'
p868
F60.0
sS'trans_enabled_5'
p869
I00
sg26
I00
sg27
F60.0
sS'trans_time_5'
p870
F60.0
sS'trans_time_3'
p871
F60.0
sS'trans_time_4'
p872
F60.0
sS'scatt_enabled_1'
p873
I00
sS'scatt_enabled_3'
p874
I01
sS'scatt_enabled_2'
p875
I00
sg34
Vatt_pos(3)\u000abs4(0.0)
p876
sS'scatt_enabled_5'
p877
I00
sg37
V
p878
sS'scatt_enabled_4'
p879
I00
sS'name_5'
p880
VEmptyRheometer
p881
sS'name_4'
p882
V
p883
sa(dp884
S'name_3'
p885
VRun2_5A_13m_nb3
p886
sS'name_2'
p887
V
p888
sS'name_1'
p889
V
p890
sg8
Vbs4(65.8)\u000aatt_pos(1)
p891
sg10
F120.0
sS'scatt_time_5'
p892
F120.0
sS'scatt_time_4'
p893
F120.0
sg13
VRheometer_Howard_13m_5A
p894
sg15
I00
sS'scatt_time_1'
p895
F120.0
sS'scatt_time_3'
p896
F600.0
sS'scatt_time_2'
p897
F120.0
sS'trans_enabled_2'
p898
I00
sS'trans_enabled_1'
p899
I00
sS'trans_enabled_4'
p900
I00
sS'trans_enabled_3'
p901
I00
sS'trans_time_1'
p902
F60.0
sS'trans_time_2'
p903
F60.0
sS'trans_enabled_5'
p904
I00
sg26
I00
sg27
F60.0
sS'trans_time_5'
p905
F60.0
sS'trans_time_3'
p906
F60.0
sS'trans_time_4'
p907
F60.0
sS'scatt_enabled_1'
p908
I00
sS'scatt_enabled_3'
p909
I01
sS'scatt_enabled_2'
p910
I00
sg34
Vatt_pos(3)\u000abs4(0.0)
p911
sS'scatt_enabled_5'
p912
I00
sg37
V
p913
sS'scatt_enabled_4'
p914
I00
sS'name_5'
p915
VEmptyRheometer
p916
sS'name_4'
p917
V
p918
sa(dp919
S'name_3'
p920
VRun2_5A_13m_nb3
p921
sS'name_2'
p922
V
p923
sS'name_1'
p924
V
p925
sg8
Vbs4(65.8)\u000aatt_pos(1)
p926
sg10
F120.0
sS'scatt_time_5'
p927
F120.0
sS'scatt_time_4'
p928
F120.0
sg13
VRheometer_Howard_13m_5A
p929
sg15
I00
sS'scatt_time_1'
p930
F120.0
sS'scatt_time_3'
p931
F600.0
sS'scatt_time_2'
p932
F120.0
sS'trans_enabled_2'
p933
I00
sS'trans_enabled_1'
p934
I00
sS'trans_enabled_4'
p935
I00
sS'trans_enabled_3'
p936
I00
sS'trans_time_1'
p937
F60.0
sS'trans_time_2'
p938
F60.0
sS'trans_enabled_5'
p939
I00
sg26
I00
sg27
F60.0
sS'trans_time_5'
p940
F60.0
sS'trans_time_3'
p941
F60.0
sS'trans_time_4'
p942
F60.0
sS'scatt_enabled_1'
p943
I00
sS'scatt_enabled_3'
p944
I01
sS'scatt_enabled_2'
p945
I00
sg34
Vatt_pos(3)\u000abs4(0.0)
p946
sS'scatt_enabled_5'
p947
I00
sg37
V
p948
sS'scatt_enabled_4'
p949
I00
sS'name_5'
p950
VEmptyRheometer
p951
sS'name_4'
p952
V
p953
sa(dp954
S'name_3'
p955
VRun2_5A_13m_nb3
p956
sS'name_2'
p957
V
p958
sS'name_1'
p959
V
p960
sg8
Vbs4(65.8)\u000aatt_pos(1)
p961
sg10
F120.0
sS'scatt_time_5'
p962
F120.0
sS'scatt_time_4'
p963
F120.0
sg13
VRheometer_Howard_13m_5A
p964
sg15
I00
sS'scatt_time_1'
p965
F120.0
sS'scatt_time_3'
p966
F600.0
sS'scatt_time_2'
p967
F120.0
sS'trans_enabled_2'
p968
I00
sS'trans_enabled_1'
p969
I00
sS'trans_enabled_4'
p970
I00
sS'trans_enabled_3'
p971
I00
sS'trans_time_1'
p972
F60.0
sS'trans_time_2'
p973
F60.0
sS'trans_enabled_5'
p974
I00
sg26
I00
sg27
F60.0
sS'trans_time_5'
p975
F60.0
sS'trans_time_3'
p976
F60.0
sS'trans_time_4'
p977
F60.0
sS'scatt_enabled_1'
p978
I00
sS'scatt_enabled_3'
p979
I01
sS'scatt_enabled_2'
p980
I00
sg34
Vatt_pos(3)\u000abs4(0.0)
p981
sS'scatt_enabled_5'
p982
I00
sg37
V
p983
sS'scatt_enabled_4'
p984
I00
sS'name_5'
p985
VEmptyRheometer
p986
sS'name_4'
p987
V
p988
sa(dp989
S'name_3'
p990
VRun2_5A_13m_nb3
p991
sS'name_2'
p992
V
p993
sS'name_1'
p994
V
p995
sg8
Vbs4(65.8)\u000aatt_pos(1)
p996
sg10
F120.0
sS'scatt_time_5'
p997
F120.0
sS'scatt_time_4'
p998
F120.0
sg13
VRheometer_Howard_13m_5A
p999
sg15
I00
sS'scatt_time_1'
p1000
F120.0
sS'scatt_time_3'
p1001
F600.0
sS'scatt_time_2'
p1002
F120.0
sS'trans_enabled_2'
p1003
I00
sS'trans_enabled_1'
p1004
I00
sS'trans_enabled_4'
p1005
I00
sS'trans_enabled_3'
p1006
I00
sS'trans_time_1'
p1007
F60.0
sS'trans_time_2'
p1008
F60.0
sS'trans_enabled_5'
p1009
I00
sg26
I00
sg27
F60.0
sS'trans_time_5'
p1010
F60.0
sS'trans_time_3'
p1011
F60.0
sS'trans_time_4'
p1012
F60.0
sS'scatt_enabled_1'
p1013
I00
sS'scatt_enabled_3'
p1014
I01
sS'scatt_enabled_2'
p1015
I00
sg34
Vatt_pos(3)\u000abs4(0.0)
p1016
sS'scatt_enabled_5'
p1017
I00
sg37
V
p1018
sS'scatt_enabled_4'
p1019
I00
sS'name_5'
p1020
VEmptyRheometer
p1021
sS'name_4'
p1022
V
p1023
sa(dp1024
S'name_3'
p1025
VRun2_5A_13m_nb3
p1026
sS'name_2'
p1027
V
p1028
sS'name_1'
p1029
V
p1030
sg8
Vbs4(65.8)\u000aatt_pos(1)
p1031
sg10
F120.0
sS'scatt_time_5'
p1032
F120.0
sS'scatt_time_4'
p1033
F120.0
sg13
VRheometer_Howard_13m_5A
p1034
sg15
I00
sS'scatt_time_1'
p1035
F120.0
sS'scatt_time_3'
p1036
F600.0
sS'scatt_time_2'
p1037
F120.0
sS'trans_enabled_2'
p1038
I00
sS'trans_enabled_1'
p1039
I00
sS'trans_enabled_4'
p1040
I00
sS'trans_enabled_3'
p1041
I00
sS'trans_time_1'
p1042
F60.0
sS'trans_time_2'
p1043
F60.0
sS'trans_enabled_5'
p1044
I00
sg26
I00
sg27
F60.0
sS'trans_time_5'
p1045
F60.0
sS'trans_time_3'
p1046
F60.0
sS'trans_time_4'
p1047
F60.0
sS'scatt_enabled_1'
p1048
I00
sS'scatt_enabled_3'
p1049
I01
sS'scatt_enabled_2'
p1050
I00
sg34
Vatt_pos(3)\u000abs4(0.0)
p1051
sS'scatt_enabled_5'
p1052
I00
sg37
V
p1053
sS'scatt_enabled_4'
p1054
I00
sS'name_5'
p1055
VEmptyRheometer
p1056
sS'name_4'
p1057
V
p1058
sa(dp1059
S'name_3'
p1060
V
p1061
sS'name_2'
p1062
V
p1063
sS'name_1'
p1064
V
p1065
sg8
V
p1066
sg10
F120.0
sS'scatt_time_5'
p1067
F120.0
sS'scatt_time_4'
p1068
F120.0
sg13
VL1=#_L2=#_ctn=#_name=WB43
p1069
sg15
I01
sS'scatt_time_1'
p1070
F120.0
sS'scatt_time_3'
p1071
F120.0
sS'scatt_time_2'
p1072
F120.0
sS'trans_enabled_2'
p1073
I01
sS'trans_enabled_1'
p1074
I01
sS'trans_enabled_4'
p1075
I01
sS'trans_enabled_3'
p1076
I01
sS'trans_time_1'
p1077
F60.0
sS'trans_time_2'
p1078
F60.0
sS'trans_enabled_5'
p1079
I01
sg26
I01
sg27
F60.0
sS'trans_time_5'
p1080
F60.0
sS'trans_time_3'
p1081
F60.0
sS'trans_time_4'
p1082
F60.0
sS'scatt_enabled_1'
p1083
I01
sS'scatt_enabled_3'
p1084
I01
sS'scatt_enabled_2'
p1085
I01
sg34
V
p1086
sS'scatt_enabled_5'
p1087
I01
sg37
V
p1088
sS'scatt_enabled_4'
p1089
I01
sS'name_5'
p1090
V
p1091
sS'name_4'
p1092
V
p1093
sa(dp1094
S'name_3'
p1095
VRun2_5A_13m_nb3
p1096
sS'name_2'
p1097
V
p1098
sS'name_1'
p1099
V
p1100
sg8
Vbs4(65.8)\u000aatt_pos(1)
p1101
sg10
F120.0
sS'scatt_time_5'
p1102
F120.0
sS'scatt_time_4'
p1103
F120.0
sg13
VRheometer_Howard_13m_5A
p1104
sg15
I00
sS'scatt_time_1'
p1105
F120.0
sS'scatt_time_3'
p1106
F600.0
sS'scatt_time_2'
p1107
F120.0
sS'trans_enabled_2'
p1108
I00
sS'trans_enabled_1'
p1109
I00
sS'trans_enabled_4'
p1110
I00
sS'trans_enabled_3'
p1111
I00
sS'trans_time_1'
p1112
F60.0
sS'trans_time_2'
p1113
F60.0
sS'trans_enabled_5'
p1114
I00
sg26
I00
sg27
F60.0
sS'trans_time_5'
p1115
F60.0
sS'trans_time_3'
p1116
F60.0
sS'trans_time_4'
p1117
F60.0
sS'scatt_enabled_1'
p1118
I00
sS'scatt_enabled_3'
p1119
I01
sS'scatt_enabled_2'
p1120
I00
sg34
Vatt_pos(3)\u000abs4(0.0)
p1121
sS'scatt_enabled_5'
p1122
I00
sg37
V
p1123
sS'scatt_enabled_4'
p1124
I00
sS'name_5'
p1125
VEmptyRheometer
p1126
sS'name_4'
p1127
V
p1128
sa(dp1129
S'name_3'
p1130
VRun2_5A_13m_nb3
p1131
sS'name_2'
p1132
V
p1133
sS'name_1'
p1134
V
p1135
sg8
Vbs4(65.8)\u000aatt_pos(1)
p1136
sg10
F120.0
sS'scatt_time_5'
p1137
F120.0
sS'scatt_time_4'
p1138
F120.0
sg13
VRheometer_Howard_13m_5A
p1139
sg15
I00
sS'scatt_time_1'
p1140
F120.0
sS'scatt_time_3'
p1141
F600.0
sS'scatt_time_2'
p1142
F120.0
sS'trans_enabled_2'
p1143
I00
sS'trans_enabled_1'
p1144
I00
sS'trans_enabled_4'
p1145
I00
sS'trans_enabled_3'
p1146
I00
sS'trans_time_1'
p1147
F60.0
sS'trans_time_2'
p1148
F60.0
sS'trans_enabled_5'
p1149
I00
sg26
I00
sg27
F60.0
sS'trans_time_5'
p1150
F60.0
sS'trans_time_3'
p1151
F60.0
sS'trans_time_4'
p1152
F60.0
sS'scatt_enabled_1'
p1153
I00
sS'scatt_enabled_3'
p1154
I01
sS'scatt_enabled_2'
p1155
I00
sg34
Vatt_pos(3)\u000abs4(0.0)
p1156
sS'scatt_enabled_5'
p1157
I00
sg37
V
p1158
sS'scatt_enabled_4'
p1159
I00
sS'name_5'
p1160
VEmptyRheometer
p1161
sS'name_4'
p1162
V
p1163
sa(dp1164
S'name_3'
p1165
VRun2_5A_13m_nb3
p1166
sS'name_2'
p1167
V
p1168
sS'name_1'
p1169
V
p1170
sg8
Vbs4(65.8)\u000aatt_pos(1)
p1171
sg10
F120.0
sS'scatt_time_5'
p1172
F120.0
sS'scatt_time_4'
p1173
F120.0
sg13
VRheometer_Howard_13m_5A
p1174
sg15
I00
sS'scatt_time_1'
p1175
F120.0
sS'scatt_time_3'
p1176
F600.0
sS'scatt_time_2'
p1177
F120.0
sS'trans_enabled_2'
p1178
I00
sS'trans_enabled_1'
p1179
I00
sS'trans_enabled_4'
p1180
I00
sS'trans_enabled_3'
p1181
I00
sS'trans_time_1'
p1182
F60.0
sS'trans_time_2'
p1183
F60.0
sS'trans_enabled_5'
p1184
I00
sg26
I00
sg27
F60.0
sS'trans_time_5'
p1185
F60.0
sS'trans_time_3'
p1186
F60.0
sS'trans_time_4'
p1187
F60.0
sS'scatt_enabled_1'
p1188
I00
sS'scatt_enabled_3'
p1189
I01
sS'scatt_enabled_2'
p1190
I00
sg34
Vatt_pos(3)\u000abs4(0.0)
p1191
sS'scatt_enabled_5'
p1192
I00
sg37
V
p1193
sS'scatt_enabled_4'
p1194
I00
sS'name_5'
p1195
VEmptyRheometer
p1196
sS'name_4'
p1197
V
p1198
sa(dp1199
S'name_3'
p1200
VRun2_5A_13m_nb3
p1201
sS'name_2'
p1202
V
p1203
sS'name_1'
p1204
V
p1205
sg8
Vbs4(65.8)\u000aatt_pos(1)
p1206
sg10
F120.0
sS'scatt_time_5'
p1207
F120.0
sS'scatt_time_4'
p1208
F120.0
sg13
VRheometer_Howard_13m_5A
p1209
sg15
I00
sS'scatt_time_1'
p1210
F120.0
sS'scatt_time_3'
p1211
F600.0
sS'scatt_time_2'
p1212
F120.0
sS'trans_enabled_2'
p1213
I00
sS'trans_enabled_1'
p1214
I00
sS'trans_enabled_4'
p1215
I00
sS'trans_enabled_3'
p1216
I00
sS'trans_time_1'
p1217
F60.0
sS'trans_time_2'
p1218
F60.0
sS'trans_enabled_5'
p1219
I00
sg26
I00
sg27
F60.0
sS'trans_time_5'
p1220
F60.0
sS'trans_time_3'
p1221
F60.0
sS'trans_time_4'
p1222
F60.0
sS'scatt_enabled_1'
p1223
I00
sS'scatt_enabled_3'
p1224
I01
sS'scatt_enabled_2'
p1225
I00
sg34
Vatt_pos(3)\u000abs4(0.0)
p1226
sS'scatt_enabled_5'
p1227
I00
sg37
V
p1228
sS'scatt_enabled_4'
p1229
I00
sS'name_5'
p1230
VEmptyRheometer
p1231
sS'name_4'
p1232
V
p1233
sa(dp1234
S'name_3'
p1235
VRun2_5A_13m_nb3
p1236
sS'name_2'
p1237
V
p1238
sS'name_1'
p1239
V
p1240
sg8
Vbs4(65.8)\u000aatt_pos(1)
p1241
sg10
F120.0
sS'scatt_time_5'
p1242
F120.0
sS'scatt_time_4'
p1243
F120.0
sg13
VRheometer_Howard_13m_5A
p1244
sg15
I00
sS'scatt_time_1'
p1245
F120.0
sS'scatt_time_3'
p1246
F600.0
sS'scatt_time_2'
p1247
F120.0
sS'trans_enabled_2'
p1248
I00
sS'trans_enabled_1'
p1249
I00
sS'trans_enabled_4'
p1250
I00
sS'trans_enabled_3'
p1251
I00
sS'trans_time_1'
p1252
F60.0
sS'trans_time_2'
p1253
F60.0
sS'trans_enabled_5'
p1254
I00
sg26
I00
sg27
F60.0
sS'trans_time_5'
p1255
F60.0
sS'trans_time_3'
p1256
F60.0
sS'trans_time_4'
p1257
F60.0
sS'scatt_enabled_1'
p1258
I00
sS'scatt_enabled_3'
p1259
I01
sS'scatt_enabled_2'
p1260
I00
sg34
Vatt_pos(3)\u000abs4(0.0)
p1261
sS'scatt_enabled_5'
p1262
I00
sg37
V
p1263
sS'scatt_enabled_4'
p1264
I00
sS'name_5'
p1265
VEmptyRheometer
p1266
sS'name_4'
p1267
V
p1268
sa(dp1269
S'name_3'
p1270
VRun2_5A_13m_nb3
p1271
sS'name_2'
p1272
V
p1273
sS'name_1'
p1274
V
p1275
sg8
Vbs4(65.8)\u000aatt_pos(1)
p1276
sg10
F120.0
sS'scatt_time_5'
p1277
F120.0
sS'scatt_time_4'
p1278
F120.0
sg13
VRheometer_Howard_13m_5A
p1279
sg15
I00
sS'scatt_time_1'
p1280
F120.0
sS'scatt_time_3'
p1281
F600.0
sS'scatt_time_2'
p1282
F120.0
sS'trans_enabled_2'
p1283
I00
sS'trans_enabled_1'
p1284
I00
sS'trans_enabled_4'
p1285
I00
sS'trans_enabled_3'
p1286
I00
sS'trans_time_1'
p1287
F60.0
sS'trans_time_2'
p1288
F60.0
sS'trans_enabled_5'
p1289
I00
sg26
I00
sg27
F60.0
sS'trans_time_5'
p1290
F60.0
sS'trans_time_3'
p1291
F60.0
sS'trans_time_4'
p1292
F60.0
sS'scatt_enabled_1'
p1293
I00
sS'scatt_enabled_3'
p1294
I01
sS'scatt_enabled_2'
p1295
I00
sg34
Vatt_pos(3)\u000abs4(0.0)
p1296
sS'scatt_enabled_5'
p1297
I00
sg37
V
p1298
sS'scatt_enabled_4'
p1299
I00
sS'name_5'
p1300
VEmptyRheometer
p1301
sS'name_4'
p1302
V
p1303
sa(dp1304
S'name_3'
p1305
VRun2_5A_13m_nb3
p1306
sS'name_2'
p1307
V
p1308
sS'name_1'
p1309
V
p1310
sg8
Vbs4(65.8)\u000aatt_pos(1)
p1311
sg10
F120.0
sS'scatt_time_5'
p1312
F120.0
sS'scatt_time_4'
p1313
F120.0
sg13
VRheometer_Howard_13m_5A
p1314
sg15
I00
sS'scatt_time_1'
p1315
F120.0
sS'scatt_time_3'
p1316
F600.0
sS'scatt_time_2'
p1317
F120.0
sS'trans_enabled_2'
p1318
I00
sS'trans_enabled_1'
p1319
I00
sS'trans_enabled_4'
p1320
I00
sS'trans_enabled_3'
p1321
I00
sS'trans_time_1'
p1322
F60.0
sS'trans_time_2'
p1323
F60.0
sS'trans_enabled_5'
p1324
I00
sg26
I00
sg27
F60.0
sS'trans_time_5'
p1325
F60.0
sS'trans_time_3'
p1326
F60.0
sS'trans_time_4'
p1327
F60.0
sS'scatt_enabled_1'
p1328
I00
sS'scatt_enabled_3'
p1329
I01
sS'scatt_enabled_2'
p1330
I00
sg34
Vatt_pos(3)\u000abs4(0.0)
p1331
sS'scatt_enabled_5'
p1332
I00
sg37
V
p1333
sS'scatt_enabled_4'
p1334
I00
sS'name_5'
p1335
VEmptyRheometer
p1336
sS'name_4'
p1337
V
p1338
sa(dp1339
S'name_3'
p1340
VRun2_5A_13m_nb3
p1341
sS'name_2'
p1342
V
p1343
sS'name_1'
p1344
V
p1345
sg8
Vbs4(65.8)\u000aatt_pos(1)
p1346
sg10
F120.0
sS'scatt_time_5'
p1347
F120.0
sS'scatt_time_4'
p1348
F120.0
sg13
VRheometer_Howard_13m_5A
p1349
sg15
I00
sS'scatt_time_1'
p1350
F120.0
sS'scatt_time_3'
p1351
F600.0
sS'scatt_time_2'
p1352
F120.0
sS'trans_enabled_2'
p1353
I00
sS'trans_enabled_1'
p1354
I00
sS'trans_enabled_4'
p1355
I00
sS'trans_enabled_3'
p1356
I00
sS'trans_time_1'
p1357
F60.0
sS'trans_time_2'
p1358
F60.0
sS'trans_enabled_5'
p1359
I00
sg26
I00
sg27
F60.0
sS'trans_time_5'
p1360
F60.0
sS'trans_time_3'
p1361
F60.0
sS'trans_time_4'
p1362
F60.0
sS'scatt_enabled_1'
p1363
I00
sS'scatt_enabled_3'
p1364
I01
sS'scatt_enabled_2'
p1365
I00
sg34
Vatt_pos(3)\u000abs4(0.0)
p1366
sS'scatt_enabled_5'
p1367
I00
sg37
V
p1368
sS'scatt_enabled_4'
p1369
I00
sS'name_5'
p1370
VEmptyRheometer
p1371
sS'name_4'
p1372
V
p1373
sa(dp1374
S'name_3'
p1375
VRun2_5A_13m_nb3
p1376
sS'name_2'
p1377
V
p1378
sS'name_1'
p1379
V
p1380
sg8
Vbs4(65.8)\u000aatt_pos(1)
p1381
sg10
F120.0
sS'scatt_time_5'
p1382
F120.0
sS'scatt_time_4'
p1383
F120.0
sg13
VRheometer_Howard_13m_5A
p1384
sg15
I00
sS'scatt_time_1'
p1385
F120.0
sS'scatt_time_3'
p1386
F600.0
sS'scatt_time_2'
p1387
F120.0
sS'trans_enabled_2'
p1388
I00
sS'trans_enabled_1'
p1389
I00
sS'trans_enabled_4'
p1390
I00
sS'trans_enabled_3'
p1391
I00
sS'trans_time_1'
p1392
F60.0
sS'trans_time_2'
p1393
F60.0
sS'trans_enabled_5'
p1394
I00
sg26
I00
sg27
F60.0
sS'trans_time_5'
p1395
F60.0
sS'trans_time_3'
p1396
F60.0
sS'trans_time_4'
p1397
F60.0
sS'scatt_enabled_1'
p1398
I00
sS'scatt_enabled_3'
p1399
I01
sS'scatt_enabled_2'
p1400
I00
sg34
Vatt_pos(3)\u000abs4(0.0)
p1401
sS'scatt_enabled_5'
p1402
I00
sg37
V
p1403
sS'scatt_enabled_4'
p1404
I00
sS'name_5'
p1405
VEmptyRheometer
p1406
sS'name_4'
p1407
V
p1408
sa(dp1409
S'name_3'
p1410
VRun2_5A_13m_nb3
p1411
sS'name_2'
p1412
V
p1413
sS'name_1'
p1414
V
p1415
sg8
Vbs4(65.8)\u000aatt_pos(1)
p1416
sg10
F120.0
sS'scatt_time_5'
p1417
F120.0
sS'scatt_time_4'
p1418
F120.0
sg13
VRheometer_Howard_13m_5A
p1419
sg15
I00
sS'scatt_time_1'
p1420
F120.0
sS'scatt_time_3'
p1421
F600.0
sS'scatt_time_2'
p1422
F120.0
sS'trans_enabled_2'
p1423
I00
sS'trans_enabled_1'
p1424
I00
sS'trans_enabled_4'
p1425
I00
sS'trans_enabled_3'
p1426
I00
sS'trans_time_1'
p1427
F60.0
sS'trans_time_2'
p1428
F60.0
sS'trans_enabled_5'
p1429
I00
sg26
I00
sg27
F60.0
sS'trans_time_5'
p1430
F60.0
sS'trans_time_3'
p1431
F60.0
sS'trans_time_4'
p1432
F60.0
sS'scatt_enabled_1'
p1433
I00
sS'scatt_enabled_3'
p1434
I01
sS'scatt_enabled_2'
p1435
I00
sg34
Vatt_pos(3)\u000abs4(0.0)
p1436
sS'scatt_enabled_5'
p1437
I00
sg37
V
p1438
sS'scatt_enabled_4'
p1439
I00
sS'name_5'
p1440
VEmptyRheometer
p1441
sS'name_4'
p1442
V
p1443
sa(dp1444
S'name_3'
p1445
VRun2_5A_13m_nb3
p1446
sS'name_2'
p1447
V
p1448
sS'name_1'
p1449
V
p1450
sg8
Vbs4(65.8)\u000aatt_pos(1)
p1451
sg10
F120.0
sS'scatt_time_5'
p1452
F120.0
sS'scatt_time_4'
p1453
F120.0
sg13
VRheometer_Howard_13m_5A
p1454
sg15
I00
sS'scatt_time_1'
p1455
F120.0
sS'scatt_time_3'
p1456
F600.0
sS'scatt_time_2'
p1457
F120.0
sS'trans_enabled_2'
p1458
I00
sS'trans_enabled_1'
p1459
I00
sS'trans_enabled_4'
p1460
I00
sS'trans_enabled_3'
p1461
I00
sS'trans_time_1'
p1462
F60.0
sS'trans_time_2'
p1463
F60.0
sS'trans_enabled_5'
p1464
I00
sg26
I00
sg27
F60.0
sS'trans_time_5'
p1465
F60.0
sS'trans_time_3'
p1466
F60.0
sS'trans_time_4'
p1467
F60.0
sS'scatt_enabled_1'
p1468
I00
sS'scatt_enabled_3'
p1469
I01
sS'scatt_enabled_2'
p1470
I00
sg34
Vatt_pos(3)\u000abs4(0.0)
p1471
sS'scatt_enabled_5'
p1472
I00
sg37
V
p1473
sS'scatt_enabled_4'
p1474
I00
sS'name_5'
p1475
VEmptyRheometer
p1476
sS'name_4'
p1477
V
p1478
sa(dp1479
S'name_3'
p1480
VRun2_5A_13m_nb3
p1481
sS'name_2'
p1482
V
p1483
sS'name_1'
p1484
V
p1485
sg8
Vbs4(65.8)\u000aatt_pos(1)
p1486
sg10
F120.0
sS'scatt_time_5'
p1487
F120.0
sS'scatt_time_4'
p1488
F120.0
sg13
VRheometer_Howard_13m_5A
p1489
sg15
I00
sS'scatt_time_1'
p1490
F120.0
sS'scatt_time_3'
p1491
F600.0
sS'scatt_time_2'
p1492
F120.0
sS'trans_enabled_2'
p1493
I00
sS'trans_enabled_1'
p1494
I00
sS'trans_enabled_4'
p1495
I00
sS'trans_enabled_3'
p1496
I00
sS'trans_time_1'
p1497
F60.0
sS'trans_time_2'
p1498
F60.0
sS'trans_enabled_5'
p1499
I00
sg26
I00
sg27
F60.0
sS'trans_time_5'
p1500
F60.0
sS'trans_time_3'
p1501
F60.0
sS'trans_time_4'
p1502
F60.0
sS'scatt_enabled_1'
p1503
I00
sS'scatt_enabled_3'
p1504
I01
sS'scatt_enabled_2'
p1505
I00
sg34
Vatt_pos(3)\u000abs4(0.0)
p1506
sS'scatt_enabled_5'
p1507
I00
sg37
V
p1508
sS'scatt_enabled_4'
p1509
I00
sS'name_5'
p1510
VEmptyRheometer
p1511
sS'name_4'
p1512
V
p1513
sa(dp1514
S'name_3'
p1515
VRun2_5A_13m_nb3
p1516
sS'name_2'
p1517
V
p1518
sS'name_1'
p1519
V
p1520
sg8
Vbs4(65.8)\u000aatt_pos(1)
p1521
sg10
F120.0
sS'scatt_time_5'
p1522
F120.0
sS'scatt_time_4'
p1523
F120.0
sg13
VRheometer_Howard_13m_5A
p1524
sg15
I00
sS'scatt_time_1'
p1525
F120.0
sS'scatt_time_3'
p1526
F600.0
sS'scatt_time_2'
p1527
F120.0
sS'trans_enabled_2'
p1528
I00
sS'trans_enabled_1'
p1529
I00
sS'trans_enabled_4'
p1530
I00
sS'trans_enabled_3'
p1531
I00
sS'trans_time_1'
p1532
F60.0
sS'trans_time_2'
p1533
F60.0
sS'trans_enabled_5'
p1534
I00
sg26
I00
sg27
F60.0
sS'trans_time_5'
p1535
F60.0
sS'trans_time_3'
p1536
F60.0
sS'trans_time_4'
p1537
F60.0
sS'scatt_enabled_1'
p1538
I00
sS'scatt_enabled_3'
p1539
I01
sS'scatt_enabled_2'
p1540
I00
sg34
Vatt_pos(3)\u000abs4(0.0)
p1541
sS'scatt_enabled_5'
p1542
I00
sg37
V
p1543
sS'scatt_enabled_4'
p1544
I00
sS'name_5'
p1545
VEmptyRheometer
p1546
sS'name_4'
p1547
V
p1548
sa(dp1549
S'name_3'
p1550
VRun2_5A_13m_nb3
p1551
sS'name_2'
p1552
V
p1553
sS'name_1'
p1554
V
p1555
sg8
Vbs4(65.8)\u000aatt_pos(1)
p1556
sg10
F120.0
sS'scatt_time_5'
p1557
F120.0
sS'scatt_time_4'
p1558
F120.0
sg13
VRheometer_Howard_13m_5A
p1559
sg15
I00
sS'scatt_time_1'
p1560
F120.0
sS'scatt_time_3'
p1561
F600.0
sS'scatt_time_2'
p1562
F120.0
sS'trans_enabled_2'
p1563
I00
sS'trans_enabled_1'
p1564
I00
sS'trans_enabled_4'
p1565
I00
sS'trans_enabled_3'
p1566
I00
sS'trans_time_1'
p1567
F60.0
sS'trans_time_2'
p1568
F60.0
sS'trans_enabled_5'
p1569
I00
sg26
I00
sg27
F60.0
sS'trans_time_5'
p1570
F60.0
sS'trans_time_3'
p1571
F60.0
sS'trans_time_4'
p1572
F60.0
sS'scatt_enabled_1'
p1573
I00
sS'scatt_enabled_3'
p1574
I01
sS'scatt_enabled_2'
p1575
I00
sg34
Vatt_pos(3)\u000abs4(0.0)
p1576
sS'scatt_enabled_5'
p1577
I00
sg37
V
p1578
sS'scatt_enabled_4'
p1579
I00
sS'name_5'
p1580
VEmptyRheometer
p1581
sS'name_4'
p1582
V
p1583
sa(dp1584
S'name_3'
p1585
VRun2_5A_13m_nb3
p1586
sS'name_2'
p1587
V
p1588
sS'name_1'
p1589
V
p1590
sg8
Vbs4(65.8)\u000aatt_pos(1)
p1591
sg10
F120.0
sS'scatt_time_5'
p1592
F120.0
sS'scatt_time_4'
p1593
F120.0
sg13
VRheometer_Howard_13m_5A
p1594
sg15
I00
sS'scatt_time_1'
p1595
F120.0
sS'scatt_time_3'
p1596
F600.0
sS'scatt_time_2'
p1597
F120.0
sS'trans_enabled_2'
p1598
I00
sS'trans_enabled_1'
p1599
I00
sS'trans_enabled_4'
p1600
I00
sS'trans_enabled_3'
p1601
I00
sS'trans_time_1'
p1602
F60.0
sS'trans_time_2'
p1603
F60.0
sS'trans_enabled_5'
p1604
I00
sg26
I00
sg27
F60.0
sS'trans_time_5'
p1605
F60.0
sS'trans_time_3'
p1606
F60.0
sS'trans_time_4'
p1607
F60.0
sS'scatt_enabled_1'
p1608
I00
sS'scatt_enabled_3'
p1609
I01
sS'scatt_enabled_2'
p1610
I00
sg34
Vatt_pos(3)\u000abs4(0.0)
p1611
sS'scatt_enabled_5'
p1612
I00
sg37
V
p1613
sS'scatt_enabled_4'
p1614
I00
sS'name_5'
p1615
VEmptyRheometer
p1616
sS'name_4'
p1617
V
p1618
sa(dp1619
S'name_3'
p1620
VRun2_5A_13m_nb3
p1621
sS'name_2'
p1622
V
p1623
sS'name_1'
p1624
V
p1625
sg8
Vbs4(65.8)\u000aatt_pos(1)
p1626
sg10
F120.0
sS'scatt_time_5'
p1627
F120.0
sS'scatt_time_4'
p1628
F120.0
sg13
VRheometer_Howard_13m_5A
p1629
sg15
I00
sS'scatt_time_1'
p1630
F120.0
sS'scatt_time_3'
p1631
F600.0
sS'scatt_time_2'
p1632
F120.0
sS'trans_enabled_2'
p1633
I00
sS'trans_enabled_1'
p1634
I00
sS'trans_enabled_4'
p1635
I00
sS'trans_enabled_3'
p1636
I00
sS'trans_time_1'
p1637
F60.0
sS'trans_time_2'
p1638
F60.0
sS'trans_enabled_5'
p1639
I00
sg26
I00
sg27
F60.0
sS'trans_time_5'
p1640
F60.0
sS'trans_time_3'
p1641
F60.0
sS'trans_time_4'
p1642
F60.0
sS'scatt_enabled_1'
p1643
I00
sS'scatt_enabled_3'
p1644
I01
sS'scatt_enabled_2'
p1645
I00
sg34
Vatt_pos(3)\u000abs4(0.0)
p1646
sS'scatt_enabled_5'
p1647
I00
sg37
V
p1648
sS'scatt_enabled_4'
p1649
I00
sS'name_5'
p1650
VEmptyRheometer
p1651
sS'name_4'
p1652
V
p1653
sa(dp1654
S'name_3'
p1655
VRun2_5A_13m_nb3
p1656
sS'name_2'
p1657
V
p1658
sS'name_1'
p1659
V
p1660
sg8
Vbs4(65.8)\u000aatt_pos(1)
p1661
sg10
F120.0
sS'scatt_time_5'
p1662
F120.0
sS'scatt_time_4'
p1663
F120.0
sg13
VRheometer_Howard_13m_5A
p1664
sg15
I00
sS'scatt_time_1'
p1665
F120.0
sS'scatt_time_3'
p1666
F600.0
sS'scatt_time_2'
p1667
F120.0
sS'trans_enabled_2'
p1668
I00
sS'trans_enabled_1'
p1669
I00
sS'trans_enabled_4'
p1670
I00
sS'trans_enabled_3'
p1671
I00
sS'trans_time_1'
p1672
F60.0
sS'trans_time_2'
p1673
F60.0
sS'trans_enabled_5'
p1674
I00
sg26
I00
sg27
F60.0
sS'trans_time_5'
p1675
F60.0
sS'trans_time_3'
p1676
F60.0
sS'trans_time_4'
p1677
F60.0
sS'scatt_enabled_1'
p1678
I00
sS'scatt_enabled_3'
p1679
I01
sS'scatt_enabled_2'
p1680
I00
sg34
Vatt_pos(3)\u000abs4(0.0)
p1681
sS'scatt_enabled_5'
p1682
I00
sg37
V
p1683
sS'scatt_enabled_4'
p1684
I00
sS'name_5'
p1685
VEmptyRheometer
p1686
sS'name_4'
p1687
V
p1688
sa(dp1689
S'name_3'
p1690
VRun2_5A_13m_nb3
p1691
sS'name_2'
p1692
V
p1693
sS'name_1'
p1694
V
p1695
sg8
Vbs4(65.8)\u000aatt_pos(1)
p1696
sg10
F120.0
sS'scatt_time_5'
p1697
F120.0
sS'scatt_time_4'
p1698
F120.0
sg13
VRheometer_Howard_13m_5A
p1699
sg15
I00
sS'scatt_time_1'
p1700
F120.0
sS'scatt_time_3'
p1701
F600.0
sS'scatt_time_2'
p1702
F120.0
sS'trans_enabled_2'
p1703
I00
sS'trans_enabled_1'
p1704
I00
sS'trans_enabled_4'
p1705
I00
sS'trans_enabled_3'
p1706
I00
sS'trans_time_1'
p1707
F60.0
sS'trans_time_2'
p1708
F60.0
sS'trans_enabled_5'
p1709
I00
sg26
I00
sg27
F60.0
sS'trans_time_5'
p1710
F60.0
sS'trans_time_3'
p1711
F60.0
sS'trans_time_4'
p1712
F60.0
sS'scatt_enabled_1'
p1713
I00
sS'scatt_enabled_3'
p1714
I01
sS'scatt_enabled_2'
p1715
I00
sg34
Vatt_pos(3)\u000abs4(0.0)
p1716
sS'scatt_enabled_5'
p1717
I00
sg37
V
p1718
sS'scatt_enabled_4'
p1719
I00
sS'name_5'
p1720
VEmptyRheometer
p1721
sS'name_4'
p1722
V
p1723
sa(dp1724
S'name_3'
p1725
VRun2_5A_13m_nb3
p1726
sS'name_2'
p1727
V
p1728
sS'name_1'
p1729
V
p1730
sg8
Vbs4(65.8)\u000aatt_pos(1)
p1731
sg10
F120.0
sS'scatt_time_5'
p1732
F120.0
sS'scatt_time_4'
p1733
F120.0
sg13
VRheometer_Howard_13m_5A
p1734
sg15
I00
sS'scatt_time_1'
p1735
F120.0
sS'scatt_time_3'
p1736
F600.0
sS'scatt_time_2'
p1737
F120.0
sS'trans_enabled_2'
p1738
I00
sS'trans_enabled_1'
p1739
I00
sS'trans_enabled_4'
p1740
I00
sS'trans_enabled_3'
p1741
I00
sS'trans_time_1'
p1742
F60.0
sS'trans_time_2'
p1743
F60.0
sS'trans_enabled_5'
p1744
I00
sg26
I00
sg27
F60.0
sS'trans_time_5'
p1745
F60.0
sS'trans_time_3'
p1746
F60.0
sS'trans_time_4'
p1747
F60.0
sS'scatt_enabled_1'
p1748
I00
sS'scatt_enabled_3'
p1749
I01
sS'scatt_enabled_2'
p1750
I00
sg34
Vatt_pos(3)\u000abs4(0.0)
p1751
sS'scatt_enabled_5'
p1752
I00
sg37
V
p1753
sS'scatt_enabled_4'
p1754
I00
sS'name_5'
p1755
VEmptyRheometer
p1756
sS'name_4'
p1757
V
p1758
sa(dp1759
S'name_3'
p1760
VRun2_5A_13m_nb3
p1761
sS'name_2'
p1762
V
p1763
sS'name_1'
p1764
V
p1765
sg8
Vbs4(65.8)\u000aatt_pos(1)
p1766
sg10
F120.0
sS'scatt_time_5'
p1767
F120.0
sS'scatt_time_4'
p1768
F120.0
sg13
VRheometer_Howard_13m_5A
p1769
sg15
I00
sS'scatt_time_1'
p1770
F120.0
sS'scatt_time_3'
p1771
F600.0
sS'scatt_time_2'
p1772
F120.0
sS'trans_enabled_2'
p1773
I00
sS'trans_enabled_1'
p1774
I00
sS'trans_enabled_4'
p1775
I00
sS'trans_enabled_3'
p1776
I00
sS'trans_time_1'
p1777
F60.0
sS'trans_time_2'
p1778
F60.0
sS'trans_enabled_5'
p1779
I00
sg26
I00
sg27
F60.0
sS'trans_time_5'
p1780
F60.0
sS'trans_time_3'
p1781
F60.0
sS'trans_time_4'
p1782
F60.0
sS'scatt_enabled_1'
p1783
I00
sS'scatt_enabled_3'
p1784
I01
sS'scatt_enabled_2'
p1785
I00
sg34
Vatt_pos(3)\u000abs4(0.0)
p1786
sS'scatt_enabled_5'
p1787
I00
sg37
V
p1788
sS'scatt_enabled_4'
p1789
I00
sS'name_5'
p1790
VEmptyRheometer
p1791
sS'name_4'
p1792
V
p1793
sa(dp1794
S'name_3'
p1795
VRun2_5A_13m_nb3
p1796
sS'name_2'
p1797
V
p1798
sS'name_1'
p1799
V
p1800
sg8
Vbs4(65.8)\u000aatt_pos(1)
p1801
sg10
F120.0
sS'scatt_time_5'
p1802
F120.0
sS'scatt_time_4'
p1803
F120.0
sg13
VRheometer_Howard_13m_5A
p1804
sg15
I00
sS'scatt_time_1'
p1805
F120.0
sS'scatt_time_3'
p1806
F600.0
sS'scatt_time_2'
p1807
F120.0
sS'trans_enabled_2'
p1808
I00
sS'trans_enabled_1'
p1809
I00
sS'trans_enabled_4'
p1810
I00
sS'trans_enabled_3'
p1811
I00
sS'trans_time_1'
p1812
F60.0
sS'trans_time_2'
p1813
F60.0
sS'trans_enabled_5'
p1814
I00
sg26
I00
sg27
F60.0
sS'trans_time_5'
p1815
F60.0
sS'trans_time_3'
p1816
F60.0
sS'trans_time_4'
p1817
F60.0
sS'scatt_enabled_1'
p1818
I00
sS'scatt_enabled_3'
p1819
I01
sS'scatt_enabled_2'
p1820
I00
sg34
Vatt_pos(3)\u000abs4(0.0)
p1821
sS'scatt_enabled_5'
p1822
I00
sg37
V
p1823
sS'scatt_enabled_4'
p1824
I00
sS'name_5'
p1825
VEmptyRheometer
p1826
sS'name_4'
p1827
V
p1828
sa(dp1829
S'name_3'
p1830
VRun2_5A_13m_nb3
p1831
sS'name_2'
p1832
V
p1833
sS'name_1'
p1834
V
p1835
sg8
Vbs4(65.8)\u000aatt_pos(1)
p1836
sg10
F120.0
sS'scatt_time_5'
p1837
F120.0
sS'scatt_time_4'
p1838
F120.0
sg13
VRheometer_Howard_13m_5A
p1839
sg15
I00
sS'scatt_time_1'
p1840
F120.0
sS'scatt_time_3'
p1841
F600.0
sS'scatt_time_2'
p1842
F120.0
sS'trans_enabled_2'
p1843
I00
sS'trans_enabled_1'
p1844
I00
sS'trans_enabled_4'
p1845
I00
sS'trans_enabled_3'
p1846
I00
sS'trans_time_1'
p1847
F60.0
sS'trans_time_2'
p1848
F60.0
sS'trans_enabled_5'
p1849
I00
sg26
I00
sg27
F60.0
sS'trans_time_5'
p1850
F60.0
sS'trans_time_3'
p1851
F60.0
sS'trans_time_4'
p1852
F60.0
sS'scatt_enabled_1'
p1853
I00
sS'scatt_enabled_3'
p1854
I01
sS'scatt_enabled_2'
p1855
I00
sg34
Vatt_pos(3)\u000abs4(0.0)
p1856
sS'scatt_enabled_5'
p1857
I00
sg37
V
p1858
sS'scatt_enabled_4'
p1859
I00
sS'name_5'
p1860
VEmptyRheometer
p1861
sS'name_4'
p1862
V
p1863
sa(dp1864
S'name_3'
p1865
VRun2_5A_13m_nb3
p1866
sS'name_2'
p1867
V
p1868
sS'name_1'
p1869
V
p1870
sg8
Vbs4(65.8)\u000aatt_pos(1)
p1871
sg10
F120.0
sS'scatt_time_5'
p1872
F120.0
sS'scatt_time_4'
p1873
F120.0
sg13
VRheometer_Howard_13m_5A
p1874
sg15
I00
sS'scatt_time_1'
p1875
F120.0
sS'scatt_time_3'
p1876
F600.0
sS'scatt_time_2'
p1877
F120.0
sS'trans_enabled_2'
p1878
I00
sS'trans_enabled_1'
p1879
I00
sS'trans_enabled_4'
p1880
I00
sS'trans_enabled_3'
p1881
I00
sS'trans_time_1'
p1882
F60.0
sS'trans_time_2'
p1883
F60.0
sS'trans_enabled_5'
p1884
I00
sg26
I00
sg27
F60.0
sS'trans_time_5'
p1885
F60.0
sS'trans_time_3'
p1886
F60.0
sS'trans_time_4'
p1887
F60.0
sS'scatt_enabled_1'
p1888
I00
sS'scatt_enabled_3'
p1889
I01
sS'scatt_enabled_2'
p1890
I00
sg34
Vatt_pos(3)\u000abs4(0.0)
p1891
sS'scatt_enabled_5'
p1892
I00
sg37
V
p1893
sS'scatt_enabled_4'
p1894
I00
sS'name_5'
p1895
VEmptyRheometer
p1896
sS'name_4'
p1897
V
p1898
sa(dp1899
S'name_3'
p1900
VRun2_5A_13m_nb3
p1901
sS'name_2'
p1902
V
p1903
sS'name_1'
p1904
V
p1905
sg8
Vbs4(65.8)\u000aatt_pos(1)
p1906
sg10
F120.0
sS'scatt_time_5'
p1907
F120.0
sS'scatt_time_4'
p1908
F120.0
sg13
VRheometer_Howard_13m_5A
p1909
sg15
I00
sS'scatt_time_1'
p1910
F120.0
sS'scatt_time_3'
p1911
F600.0
sS'scatt_time_2'
p1912
F120.0
sS'trans_enabled_2'
p1913
I00
sS'trans_enabled_1'
p1914
I00
sS'trans_enabled_4'
p1915
I00
sS'trans_enabled_3'
p1916
I00
sS'trans_time_1'
p1917
F60.0
sS'trans_time_2'
p1918
F60.0
sS'trans_enabled_5'
p1919
I00
sg26
I00
sg27
F60.0
sS'trans_time_5'
p1920
F60.0
sS'trans_time_3'
p1921
F60.0
sS'trans_time_4'
p1922
F60.0
sS'scatt_enabled_1'
p1923
I00
sS'scatt_enabled_3'
p1924
I01
sS'scatt_enabled_2'
p1925
I00
sg34
Vatt_pos(3)\u000abs4(0.0)
p1926
sS'scatt_enabled_5'
p1927
I00
sg37
V
p1928
sS'scatt_enabled_4'
p1929
I00
sS'name_5'
p1930
VEmptyRheometer
p1931
sS'name_4'
p1932
V
p1933
sa(dp1934
S'name_3'
p1935
VRun2_5A_13m_nb3
p1936
sS'name_2'
p1937
V
p1938
sS'name_1'
p1939
V
p1940
sg8
Vbs4(65.8)\u000aatt_pos(1)
p1941
sg10
F120.0
sS'scatt_time_5'
p1942
F120.0
sS'scatt_time_4'
p1943
F120.0
sg13
VRheometer_Howard_13m_5A
p1944
sg15
I00
sS'scatt_time_1'
p1945
F120.0
sS'scatt_time_3'
p1946
F600.0
sS'scatt_time_2'
p1947
F120.0
sS'trans_enabled_2'
p1948
I00
sS'trans_enabled_1'
p1949
I00
sS'trans_enabled_4'
p1950
I00
sS'trans_enabled_3'
p1951
I00
sS'trans_time_1'
p1952
F60.0
sS'trans_time_2'
p1953
F60.0
sS'trans_enabled_5'
p1954
I00
sg26
I00
sg27
F60.0
sS'trans_time_5'
p1955
F60.0
sS'trans_time_3'
p1956
F60.0
sS'trans_time_4'
p1957
F60.0
sS'scatt_enabled_1'
p1958
I00
sS'scatt_enabled_3'
p1959
I01
sS'scatt_enabled_2'
p1960
I00
sg34
Vatt_pos(3)\u000abs4(0.0)
p1961
sS'scatt_enabled_5'
p1962
I00
sg37
V
p1963
sS'scatt_enabled_4'
p1964
I00
sS'name_5'
p1965
VEmptyRheometer
p1966
sS'name_4'
p1967
V
p1968
sa(dp1969
S'name_3'
p1970
VRun2_5A_13m_nb3
p1971
sS'name_2'
p1972
V
p1973
sS'name_1'
p1974
V
p1975
sg8
Vbs4(65.8)\u000aatt_pos(1)
p1976
sg10
F120.0
sS'scatt_time_5'
p1977
F120.0
sS'scatt_time_4'
p1978
F120.0
sg13
VRheometer_Howard_13m_5A
p1979
sg15
I00
sS'scatt_time_1'
p1980
F120.0
sS'scatt_time_3'
p1981
F600.0
sS'scatt_time_2'
p1982
F120.0
sS'trans_enabled_2'
p1983
I00
sS'trans_enabled_1'
p1984
I00
sS'trans_enabled_4'
p1985
I00
sS'trans_enabled_3'
p1986
I00
sS'trans_time_1'
p1987
F60.0
sS'trans_time_2'
p1988
F60.0
sS'trans_enabled_5'
p1989
I00
sg26
I00
sg27
F60.0
sS'trans_time_5'
p1990
F60.0
sS'trans_time_3'
p1991
F60.0
sS'trans_time_4'
p1992
F60.0
sS'scatt_enabled_1'
p1993
I00
sS'scatt_enabled_3'
p1994
I01
sS'scatt_enabled_2'
p1995
I00
sg34
Vatt_pos(3)\u000abs4(0.0)
p1996
sS'scatt_enabled_5'
p1997
I00
sg37
Vnguide(2,'D40','D40')\u000aDetector.det =12842\u000aDetector.curtaindet = 5842\u000aDetector.curtainl = 280\u000aDetector.curtainr = 280\u000aDetector.curtainu = 150\u000aDetector.curtaind = 150\u000aDetector.drive()
p1998
sS'scatt_enabled_4'
p1999
I00
sS'name_5'
p2000
VEmptyRheometer
p2001
sS'name_4'
p2002
V
p2003
sa(dp2004
S'name_3'
p2005
VRun2_5A_13m_nb3
p2006
sS'name_2'
p2007
V
p2008
sS'name_1'
p2009
V
p2010
sg8
Vbs4(65.8)\u000aatt_pos(1)
p2011
sg10
F120.0
sS'scatt_time_5'
p2012
F120.0
sS'scatt_time_4'
p2013
F120.0
sg13
VRheometer_Howard_13m_5A
p2014
sg15
I00
sS'scatt_time_1'
p2015
F120.0
sS'scatt_time_3'
p2016
F600.0
sS'scatt_time_2'
p2017
F120.0
sS'trans_enabled_2'
p2018
I00
sS'trans_enabled_1'
p2019
I00
sS'trans_enabled_4'
p2020
I00
sS'trans_enabled_3'
p2021
I00
sS'trans_time_1'
p2022
F60.0
sS'trans_time_2'
p2023
F60.0
sS'trans_enabled_5'
p2024
I00
sg26
I00
sg27
F60.0
sS'trans_time_5'
p2025
F60.0
sS'trans_time_3'
p2026
F60.0
sS'trans_time_4'
p2027
F60.0
sS'scatt_enabled_1'
p2028
I00
sS'scatt_enabled_3'
p2029
I01
sS'scatt_enabled_2'
p2030
I00
sg34
Vatt_pos(3)\u000abs4(0.0)
p2031
sS'scatt_enabled_5'
p2032
I00
sg37
V
p2033
sS'scatt_enabled_4'
p2034
I00
sS'name_5'
p2035
VEmptyRheometer
p2036
sS'name_4'
p2037
V
p2038
sa(dp2039
S'name_3'
p2040
VRun2_5A_13m_nb3
p2041
sS'name_2'
p2042
V
p2043
sS'name_1'
p2044
V
p2045
sg8
Vbs4(65.8)\u000aatt_pos(1)
p2046
sg10
F120.0
sS'scatt_time_5'
p2047
F120.0
sS'scatt_time_4'
p2048
F120.0
sg13
VRheometer_Howard_13m_5A
p2049
sg15
I00
sS'scatt_time_1'
p2050
F120.0
sS'scatt_time_3'
p2051
F600.0
sS'scatt_time_2'
p2052
F120.0
sS'trans_enabled_2'
p2053
I00
sS'trans_enabled_1'
p2054
I00
sS'trans_enabled_4'
p2055
I00
sS'trans_enabled_3'
p2056
I00
sS'trans_time_1'
p2057
F60.0
sS'trans_time_2'
p2058
F60.0
sS'trans_enabled_5'
p2059
I00
sg26
I00
sg27
F60.0
sS'trans_time_5'
p2060
F60.0
sS'trans_time_3'
p2061
F60.0
sS'trans_time_4'
p2062
F60.0
sS'scatt_enabled_1'
p2063
I00
sS'scatt_enabled_3'
p2064
I01
sS'scatt_enabled_2'
p2065
I00
sg34
Vatt_pos(3)\u000abs4(0.0)
p2066
sS'scatt_enabled_5'
p2067
I00
sg37
V
p2068
sS'scatt_enabled_4'
p2069
I00
sS'name_5'
p2070
VEmptyRheometer
p2071
sS'name_4'
p2072
V
p2073
sa(dp2074
S'name_3'
p2075
VRun2_5A_13m_nb3
p2076
sS'name_2'
p2077
V
p2078
sS'name_1'
p2079
V
p2080
sg8
Vbs4(65.8)\u000aatt_pos(1)
p2081
sg10
F120.0
sS'scatt_time_5'
p2082
F120.0
sS'scatt_time_4'
p2083
F120.0
sg13
VRheometer_Howard_13m_5A
p2084
sg15
I00
sS'scatt_time_1'
p2085
F120.0
sS'scatt_time_3'
p2086
F600.0
sS'scatt_time_2'
p2087
F120.0
sS'trans_enabled_2'
p2088
I00
sS'trans_enabled_1'
p2089
I00
sS'trans_enabled_4'
p2090
I00
sS'trans_enabled_3'
p2091
I00
sS'trans_time_1'
p2092
F60.0
sS'trans_time_2'
p2093
F60.0
sS'trans_enabled_5'
p2094
I00
sg26
I00
sg27
F60.0
sS'trans_time_5'
p2095
F60.0
sS'trans_time_3'
p2096
F60.0
sS'trans_time_4'
p2097
F60.0
sS'scatt_enabled_1'
p2098
I00
sS'scatt_enabled_3'
p2099
I01
sS'scatt_enabled_2'
p2100
I00
sg34
Vatt_pos(3)\u000abs4(0.0)
p2101
sS'scatt_enabled_5'
p2102
I00
sg37
V
p2103
sS'scatt_enabled_4'
p2104
I00
sS'name_5'
p2105
VEmptyRheometer
p2106
sS'name_4'
p2107
V
p2108
sa(dp2109
S'name_3'
p2110
VRun2_5A_13m_nb3
p2111
sS'name_2'
p2112
V
p2113
sS'name_1'
p2114
V
p2115
sg8
Vbs4(65.8)\u000aatt_pos(1)
p2116
sg10
F120.0
sS'scatt_time_5'
p2117
F120.0
sS'scatt_time_4'
p2118
F120.0
sg13
VRheometer_Howard_13m_5A
p2119
sg15
I00
sS'scatt_time_1'
p2120
F120.0
sS'scatt_time_3'
p2121
F600.0
sS'scatt_time_2'
p2122
F120.0
sS'trans_enabled_2'
p2123
I00
sS'trans_enabled_1'
p2124
I00
sS'trans_enabled_4'
p2125
I00
sS'trans_enabled_3'
p2126
I00
sS'trans_time_1'
p2127
F60.0
sS'trans_time_2'
p2128
F60.0
sS'trans_enabled_5'
p2129
I00
sg26
I00
sg27
F60.0
sS'trans_time_5'
p2130
F60.0
sS'trans_time_3'
p2131
F60.0
sS'trans_time_4'
p2132
F60.0
sS'scatt_enabled_1'
p2133
I00
sS'scatt_enabled_3'
p2134
I01
sS'scatt_enabled_2'
p2135
I00
sg34
Vatt_pos(3)\u000abs4(0.0)
p2136
sS'scatt_enabled_5'
p2137
I00
sg37
V
p2138
sS'scatt_enabled_4'
p2139
I00
sS'name_5'
p2140
VEmptyRheometer
p2141
sS'name_4'
p2142
V
p2143
sa(dp2144
S'name_3'
p2145
VRun2_5A_13m_nb3
p2146
sS'name_2'
p2147
V
p2148
sS'name_1'
p2149
V
p2150
sg8
Vbs4(65.8)\u000aatt_pos(1)
p2151
sg10
F120.0
sS'scatt_time_5'
p2152
F120.0
sS'scatt_time_4'
p2153
F120.0
sg13
VRheometer_Howard_13m_5A
p2154
sg15
I00
sS'scatt_time_1'
p2155
F120.0
sS'scatt_time_3'
p2156
F600.0
sS'scatt_time_2'
p2157
F120.0
sS'trans_enabled_2'
p2158
I00
sS'trans_enabled_1'
p2159
I00
sS'trans_enabled_4'
p2160
I00
sS'trans_enabled_3'
p2161
I00
sS'trans_time_1'
p2162
F60.0
sS'trans_time_2'
p2163
F60.0
sS'trans_enabled_5'
p2164
I00
sg26
I00
sg27
F60.0
sS'trans_time_5'
p2165
F60.0
sS'trans_time_3'
p2166
F60.0
sS'trans_time_4'
p2167
F60.0
sS'scatt_enabled_1'
p2168
I00
sS'scatt_enabled_3'
p2169
I01
sS'scatt_enabled_2'
p2170
I00
sg34
Vatt_pos(3)\u000abs4(0.0)
p2171
sS'scatt_enabled_5'
p2172
I00
sg37
V
p2173
sS'scatt_enabled_4'
p2174
I00
sS'name_5'
p2175
VEmptyRheometer
p2176
sS'name_4'
p2177
V
p2178
sa(dp2179
S'name_3'
p2180
VRun2_5A_13m_nb3
p2181
sS'name_2'
p2182
V
p2183
sS'name_1'
p2184
V
p2185
sg8
Vbs4(65.8)\u000aatt_pos(1)
p2186
sg10
F120.0
sS'scatt_time_5'
p2187
F120.0
sS'scatt_time_4'
p2188
F120.0
sg13
VRheometer_Howard_13m_5A
p2189
sg15
I00
sS'scatt_time_1'
p2190
F120.0
sS'scatt_time_3'
p2191
F600.0
sS'scatt_time_2'
p2192
F120.0
sS'trans_enabled_2'
p2193
I00
sS'trans_enabled_1'
p2194
I00
sS'trans_enabled_4'
p2195
I00
sS'trans_enabled_3'
p2196
I00
sS'trans_time_1'
p2197
F60.0
sS'trans_time_2'
p2198
F60.0
sS'trans_enabled_5'
p2199
I00
sg26
I00
sg27
F60.0
sS'trans_time_5'
p2200
F60.0
sS'trans_time_3'
p2201
F60.0
sS'trans_time_4'
p2202
F60.0
sS'scatt_enabled_1'
p2203
I00
sS'scatt_enabled_3'
p2204
I01
sS'scatt_enabled_2'
p2205
I00
sg34
Vatt_pos(3)\u000abs4(0.0)
p2206
sS'scatt_enabled_5'
p2207
I00
sg37
V
p2208
sS'scatt_enabled_4'
p2209
I00
sS'name_5'
p2210
VEmptyRheometer
p2211
sS'name_4'
p2212
V
p2213
sa(dp2214
S'name_3'
p2215
VRun2_5A_13m_nb3
p2216
sS'name_2'
p2217
V
p2218
sS'name_1'
p2219
V
p2220
sg8
Vbs4(65.8)\u000aatt_pos(1)
p2221
sg10
F120.0
sS'scatt_time_5'
p2222
F120.0
sS'scatt_time_4'
p2223
F120.0
sg13
VRheometer_Howard_13m_5A
p2224
sg15
I00
sS'scatt_time_1'
p2225
F120.0
sS'scatt_time_3'
p2226
F600.0
sS'scatt_time_2'
p2227
F120.0
sS'trans_enabled_2'
p2228
I00
sS'trans_enabled_1'
p2229
I00
sS'trans_enabled_4'
p2230
I00
sS'trans_enabled_3'
p2231
I00
sS'trans_time_1'
p2232
F60.0
sS'trans_time_2'
p2233
F60.0
sS'trans_enabled_5'
p2234
I00
sg26
I00
sg27
F60.0
sS'trans_time_5'
p2235
F60.0
sS'trans_time_3'
p2236
F60.0
sS'trans_time_4'
p2237
F60.0
sS'scatt_enabled_1'
p2238
I00
sS'scatt_enabled_3'
p2239
I01
sS'scatt_enabled_2'
p2240
I00
sg34
Vatt_pos(3)\u000abs4(0.0)
p2241
sS'scatt_enabled_5'
p2242
I00
sg37
V
p2243
sS'scatt_enabled_4'
p2244
I00
sS'name_5'
p2245
VEmptyRheometer
p2246
sS'name_4'
p2247
V
p2248
sa(dp2249
S'name_3'
p2250
VRun2_5A_13m_nb3
p2251
sS'name_2'
p2252
V
p2253
sS'name_1'
p2254
V
p2255
sg8
Vbs4(65.8)\u000aatt_pos(1)
p2256
sg10
F120.0
sS'scatt_time_5'
p2257
F120.0
sS'scatt_time_4'
p2258
F120.0
sg13
VRheometer_Howard_13m_5A
p2259
sg15
I00
sS'scatt_time_1'
p2260
F120.0
sS'scatt_time_3'
p2261
F600.0
sS'scatt_time_2'
p2262
F120.0
sS'trans_enabled_2'
p2263
I00
sS'trans_enabled_1'
p2264
I00
sS'trans_enabled_4'
p2265
I00
sS'trans_enabled_3'
p2266
I00
sS'trans_time_1'
p2267
F60.0
sS'trans_time_2'
p2268
F60.0
sS'trans_enabled_5'
p2269
I00
sg26
I00
sg27
F60.0
sS'trans_time_5'
p2270
F60.0
sS'trans_time_3'
p2271
F60.0
sS'trans_time_4'
p2272
F60.0
sS'scatt_enabled_1'
p2273
I00
sS'scatt_enabled_3'
p2274
I01
sS'scatt_enabled_2'
p2275
I00
sg34
Vatt_pos(3)\u000abs4(0.0)
p2276
sS'scatt_enabled_5'
p2277
I00
sg37
V
p2278
sS'scatt_enabled_4'
p2279
I00
sS'name_5'
p2280
VEmptyRheometer
p2281
sS'name_4'
p2282
V
p2283
sa(dp2284
S'name_3'
p2285
VRun2_5A_13m_nb3
p2286
sS'name_2'
p2287
V
p2288
sS'name_1'
p2289
V
p2290
sg8
Vbs4(65.8)\u000aatt_pos(1)
p2291
sg10
F120.0
sS'scatt_time_5'
p2292
F120.0
sS'scatt_time_4'
p2293
F120.0
sg13
VRheometer_Howard_13m_5A
p2294
sg15
I00
sS'scatt_time_1'
p2295
F120.0
sS'scatt_time_3'
p2296
F600.0
sS'scatt_time_2'
p2297
F120.0
sS'trans_enabled_2'
p2298
I00
sS'trans_enabled_1'
p2299
I00
sS'trans_enabled_4'
p2300
I00
sS'trans_enabled_3'
p2301
I00
sS'trans_time_1'
p2302
F60.0
sS'trans_time_2'
p2303
F60.0
sS'trans_enabled_5'
p2304
I00
sg26
I00
sg27
F60.0
sS'trans_time_5'
p2305
F60.0
sS'trans_time_3'
p2306
F60.0
sS'trans_time_4'
p2307
F60.0
sS'scatt_enabled_1'
p2308
I00
sS'scatt_enabled_3'
p2309
I01
sS'scatt_enabled_2'
p2310
I00
sg34
Vatt_pos(3)\u000abs4(0.0)
p2311
sS'scatt_enabled_5'
p2312
I00
sg37
V
p2313
sS'scatt_enabled_4'
p2314
I00
sS'name_5'
p2315
VEmptyRheometer
p2316
sS'name_4'
p2317
V
p2318
sa(dp2319
S'name_3'
p2320
VRun2_5A_13m_nb3
p2321
sS'name_2'
p2322
V
p2323
sS'name_1'
p2324
V
p2325
sg8
Vbs4(65.8)\u000aatt_pos(1)
p2326
sg10
F120.0
sS'scatt_time_5'
p2327
F120.0
sS'scatt_time_4'
p2328
F120.0
sg13
VRheometer_Howard_13m_5A
p2329
sg15
I00
sS'scatt_time_1'
p2330
F120.0
sS'scatt_time_3'
p2331
F600.0
sS'scatt_time_2'
p2332
F120.0
sS'trans_enabled_2'
p2333
I00
sS'trans_enabled_1'
p2334
I00
sS'trans_enabled_4'
p2335
I00
sS'trans_enabled_3'
p2336
I00
sS'trans_time_1'
p2337
F60.0
sS'trans_time_2'
p2338
F60.0
sS'trans_enabled_5'
p2339
I00
sg26
I00
sg27
F60.0
sS'trans_time_5'
p2340
F60.0
sS'trans_time_3'
p2341
F60.0
sS'trans_time_4'
p2342
F60.0
sS'scatt_enabled_1'
p2343
I00
sS'scatt_enabled_3'
p2344
I01
sS'scatt_enabled_2'
p2345
I00
sg34
Vatt_pos(3)\u000abs4(0.0)
p2346
sS'scatt_enabled_5'
p2347
I00
sg37
V
p2348
sS'scatt_enabled_4'
p2349
I00
sS'name_5'
p2350
VEmptyRheometer
p2351
sS'name_4'
p2352
V
p2353
sa(dp2354
S'name_3'
p2355
VRun2_5A_13m_nb3
p2356
sS'name_2'
p2357
V
p2358
sS'name_1'
p2359
V
p2360
sg8
Vbs4(65.8)\u000aatt_pos(1)
p2361
sg10
F120.0
sS'scatt_time_5'
p2362
F120.0
sS'scatt_time_4'
p2363
F120.0
sg13
VRheometer_Howard_13m_5A
p2364
sg15
I00
sS'scatt_time_1'
p2365
F120.0
sS'scatt_time_3'
p2366
F600.0
sS'scatt_time_2'
p2367
F120.0
sS'trans_enabled_2'
p2368
I00
sS'trans_enabled_1'
p2369
I00
sS'trans_enabled_4'
p2370
I00
sS'trans_enabled_3'
p2371
I00
sS'trans_time_1'
p2372
F60.0
sS'trans_time_2'
p2373
F60.0
sS'trans_enabled_5'
p2374
I00
sg26
I00
sg27
F60.0
sS'trans_time_5'
p2375
F60.0
sS'trans_time_3'
p2376
F60.0
sS'trans_time_4'
p2377
F60.0
sS'scatt_enabled_1'
p2378
I00
sS'scatt_enabled_3'
p2379
I01
sS'scatt_enabled_2'
p2380
I00
sg34
Vatt_pos(3)\u000abs4(0.0)
p2381
sS'scatt_enabled_5'
p2382
I00
sg37
V
p2383
sS'scatt_enabled_4'
p2384
I00
sS'name_5'
p2385
VEmptyRheometer
p2386
sS'name_4'
p2387
V
p2388
sa(dp2389
S'name_3'
p2390
VRun2_5A_13m_nb3
p2391
sS'name_2'
p2392
V
p2393
sS'name_1'
p2394
V
p2395
sg8
Vbs4(65.8)\u000aatt_pos(1)
p2396
sg10
F120.0
sS'scatt_time_5'
p2397
F120.0
sS'scatt_time_4'
p2398
F120.0
sg13
VRheometer_Howard_13m_5A
p2399
sg15
I00
sS'scatt_time_1'
p2400
F120.0
sS'scatt_time_3'
p2401
F600.0
sS'scatt_time_2'
p2402
F120.0
sS'trans_enabled_2'
p2403
I00
sS'trans_enabled_1'
p2404
I00
sS'trans_enabled_4'
p2405
I00
sS'trans_enabled_3'
p2406
I00
sS'trans_time_1'
p2407
F60.0
sS'trans_time_2'
p2408
F60.0
sS'trans_enabled_5'
p2409
I00
sg26
I00
sg27
F60.0
sS'trans_time_5'
p2410
F60.0
sS'trans_time_3'
p2411
F60.0
sS'trans_time_4'
p2412
F60.0
sS'scatt_enabled_1'
p2413
I00
sS'scatt_enabled_3'
p2414
I01
sS'scatt_enabled_2'
p2415
I00
sg34
Vatt_pos(3)\u000abs4(0.0)
p2416
sS'scatt_enabled_5'
p2417
I00
sg37
V
p2418
sS'scatt_enabled_4'
p2419
I00
sS'name_5'
p2420
VEmptyRheometer
p2421
sS'name_4'
p2422
V
p2423
sa(dp2424
S'name_3'
p2425
VRun2_5A_13m_nb3
p2426
sS'name_2'
p2427
V
p2428
sS'name_1'
p2429
V
p2430
sg8
Vbs4(65.8)\u000aatt_pos(1)
p2431
sg10
F120.0
sS'scatt_time_5'
p2432
F120.0
sS'scatt_time_4'
p2433
F120.0
sg13
VRheometer_Howard_13m_5A
p2434
sg15
I00
sS'scatt_time_1'
p2435
F120.0
sS'scatt_time_3'
p2436
F600.0
sS'scatt_time_2'
p2437
F120.0
sS'trans_enabled_2'
p2438
I00
sS'trans_enabled_1'
p2439
I00
sS'trans_enabled_4'
p2440
I00
sS'trans_enabled_3'
p2441
I00
sS'trans_time_1'
p2442
F60.0
sS'trans_time_2'
p2443
F60.0
sS'trans_enabled_5'
p2444
I00
sg26
I00
sg27
F60.0
sS'trans_time_5'
p2445
F60.0
sS'trans_time_3'
p2446
F60.0
sS'trans_time_4'
p2447
F60.0
sS'scatt_enabled_1'
p2448
I00
sS'scatt_enabled_3'
p2449
I01
sS'scatt_enabled_2'
p2450
I00
sg34
Vatt_pos(3)\u000abs4(0.0)
p2451
sS'scatt_enabled_5'
p2452
I00
sg37
V
p2453
sS'scatt_enabled_4'
p2454
I00
sS'name_5'
p2455
VEmptyRheometer
p2456
sS'name_4'
p2457
V
p2458
sa(dp2459
S'name_3'
p2460
VRun2_5A_13m_nb3
p2461
sS'name_2'
p2462
V
p2463
sS'name_1'
p2464
V
p2465
sg8
Vbs4(65.8)\u000aatt_pos(1)
p2466
sg10
F120.0
sS'scatt_time_5'
p2467
F120.0
sS'scatt_time_4'
p2468
F120.0
sg13
VRheometer_Howard_13m_5A
p2469
sg15
I00
sS'scatt_time_1'
p2470
F120.0
sS'scatt_time_3'
p2471
F600.0
sS'scatt_time_2'
p2472
F120.0
sS'trans_enabled_2'
p2473
I00
sS'trans_enabled_1'
p2474
I00
sS'trans_enabled_4'
p2475
I00
sS'trans_enabled_3'
p2476
I00
sS'trans_time_1'
p2477
F60.0
sS'trans_time_2'
p2478
F60.0
sS'trans_enabled_5'
p2479
I00
sg26
I00
sg27
F60.0
sS'trans_time_5'
p2480
F60.0
sS'trans_time_3'
p2481
F60.0
sS'trans_time_4'
p2482
F60.0
sS'scatt_enabled_1'
p2483
I00
sS'scatt_enabled_3'
p2484
I01
sS'scatt_enabled_2'
p2485
I00
sg34
Vatt_pos(3)\u000abs4(0.0)
p2486
sS'scatt_enabled_5'
p2487
I00
sg37
V
p2488
sS'scatt_enabled_4'
p2489
I00
sS'name_5'
p2490
VEmptyRheometer
p2491
sS'name_4'
p2492
V
p2493
sa(dp2494
S'name_3'
p2495
VRun2_5A_13m_nb3
p2496
sS'name_2'
p2497
V
p2498
sS'name_1'
p2499
V
p2500
sg8
Vbs4(65.8)\u000aatt_pos(1)
p2501
sg10
F120.0
sS'scatt_time_5'
p2502
F120.0
sS'scatt_time_4'
p2503
F120.0
sg13
VRheometer_Howard_13m_5A
p2504
sg15
I00
sS'scatt_time_1'
p2505
F120.0
sS'scatt_time_3'
p2506
F600.0
sS'scatt_time_2'
p2507
F120.0
sS'trans_enabled_2'
p2508
I00
sS'trans_enabled_1'
p2509
I00
sS'trans_enabled_4'
p2510
I00
sS'trans_enabled_3'
p2511
I00
sS'trans_time_1'
p2512
F60.0
sS'trans_time_2'
p2513
F60.0
sS'trans_enabled_5'
p2514
I00
sg26
I00
sg27
F60.0
sS'trans_time_5'
p2515
F60.0
sS'trans_time_3'
p2516
F60.0
sS'trans_time_4'
p2517
F60.0
sS'scatt_enabled_1'
p2518
I00
sS'scatt_enabled_3'
p2519
I01
sS'scatt_enabled_2'
p2520
I00
sg34
Vatt_pos(3)\u000abs4(0.0)
p2521
sS'scatt_enabled_5'
p2522
I00
sg37
V
p2523
sS'scatt_enabled_4'
p2524
I00
sS'name_5'
p2525
VEmptyRheometer
p2526
sS'name_4'
p2527
V
p2528
sa.