(lp0
(dp1
S'scatt_setup'
p2
Vbs4(65.8)\u000aatt_pos(1)
p3
sS'thickness'
p4
F0.0
sS'scatt_time'
p5
F600.0
sS'scatt_time_5'
p6
F600.0
sS'scatt_enabled_12'
p7
I00
sS'scatt_time_4'
p8
F600.0
sS'scatt_enabled_11'
p9
I00
sS'scatt_time_7'
p10
F600.0
sS'scatt_time_6'
p11
F600.0
sS'scatt_time_9'
p12
F600.0
sS'scatt_time_8'
p13
F600.0
sS'scatt_enabled_10'
p14
I00
sS'trans_time_12'
p15
F300.0
sS'scatt_time_1'
p16
F600.0
sS'scatt_time_3'
p17
F600.0
sS'trans_time_11'
p18
F300.0
sS'scatt_time_2'
p19
F600.0
sS'trans_time_10'
p20
F300.0
sS'trans_time_1'
p21
F300.0
sS'thickness_12'
p22
F0.0
sS'trans_time_2'
p23
F300.0
sS'thickness_10'
p24
F0.0
sS'trans_enabled'
p25
I00
sS'thickness_11'
p26
F0.0
sS'trans_time_9'
p27
F300.0
sS'trans_time'
p28
F300.0
sS'trans_time_7'
p29
F300.0
sS'trans_time_8'
p30
F300.0
sS'trans_time_5'
p31
F300.0
sS'trans_time_6'
p32
F300.0
sS'trans_time_3'
p33
F300.0
sS'trans_time_4'
p34
F300.0
sS'trans_setup'
p35
Vatt_pos(2)\u000abs4(0.0)
p36
sS'name_9'
p37
VTrupro_MQ_1h_test_gelled
p38
sS'name_8'
p39
V
p40
sS'name_7'
p41
VSoy_MQ_17h__gel_KKB
p42
sS'name_6'
p43
V
p44
sS'name_5'
p45
VTrupro_MQ_17h_gel_KKB
p46
sS'name_4'
p47
V-
p48
sS'name_3'
p49
VSoy_MQ_17h_start
p50
sS'name_2'
p51
V-
p52
sS'name_1'
p53
VTrupro_MQ_17h_start
p54
sS'title'
p55
VAlice and Leonie
p56
sS'scatt_enabled'
p57
I00
sS'scatt_time_11'
p58
F600.0
sS'scatt_time_12'
p59
F600.0
sS'trans_enabled_2'
p60
I00
sS'trans_enabled_1'
p61
I01
sS'scatt_time_10'
p62
F600.0
sS'trans_enabled_4'
p63
I00
sS'trans_enabled_3'
p64
I01
sS'trans_enabled_6'
p65
I00
sS'trans_enabled_5'
p66
I01
sS'trans_enabled_8'
p67
I00
sS'trans_enabled_7'
p68
I01
sS'trans_enabled_9'
p69
I01
sS'scatt_enabled_1'
p70
I01
sS'name_10'
p71
V
p72
sS'scatt_enabled_3'
p73
I01
sS'scatt_enabled_2'
p74
I00
sS'thickness_2'
p75
F0.0
sS'name_11'
p76
V
p77
sS'thickness_1'
p78
F0.0
sS'name_12'
p79
V
p80
sS'thickness_4'
p81
F0.0
sS'scatt_enabled_9'
p82
I01
sS'thickness_3'
p83
F0.0
sS'scatt_enabled_8'
p84
I00
sS'trans_enabled_12'
p85
I00
sS'thickness_6'
p86
F0.0
sS'trans_enabled_11'
p87
I00
sS'thickness_5'
p88
F0.0
sS'trans_enabled_10'
p89
I00
sS'scatt_enabled_5'
p90
I01
sS'thickness_8'
p91
F0.0
sS'scatt_enabled_4'
p92
I00
sS'config'
p93
V
p94
sS'thickness_7'
p95
F0.0
sS'scatt_enabled_7'
p96
I01
sS'scatt_enabled_6'
p97
I00
sS'thickness_9'
p98
F0.0
sa(dp99
g2
Vbs4(65.8)\u000aatt_pos(1)
p100
sg4
F0.0
sg5
F600.0
sS'scatt_time_5'
p101
F600.0
sS'scatt_enabled_12'
p102
I00
sS'scatt_time_4'
p103
F600.0
sS'scatt_enabled_11'
p104
I00
sS'scatt_time_7'
p105
F600.0
sS'scatt_time_6'
p106
F600.0
sS'scatt_time_9'
p107
F600.0
sS'scatt_time_8'
p108
F600.0
sS'scatt_enabled_10'
p109
I00
sS'trans_time_12'
p110
F300.0
sS'scatt_time_1'
p111
F600.0
sS'scatt_time_3'
p112
F600.0
sS'trans_time_11'
p113
F300.0
sS'scatt_time_2'
p114
F600.0
sS'trans_time_10'
p115
F300.0
sS'trans_time_1'
p116
F300.0
sS'thickness_12'
p117
F0.0
sS'trans_time_2'
p118
F300.0
sS'thickness_10'
p119
F0.0
sg25
I00
sS'thickness_11'
p120
F0.0
sS'trans_time_9'
p121
F300.0
sg28
F300.0
sS'trans_time_7'
p122
F300.0
sS'trans_time_8'
p123
F300.0
sS'trans_time_5'
p124
F300.0
sS'trans_time_6'
p125
F300.0
sS'trans_time_3'
p126
F300.0
sS'trans_time_4'
p127
F300.0
sg35
Vatt_pos(2)\u000abs4(0.0)
p128
sS'name_9'
p129
V
p130
sS'name_8'
p131
V
p132
sS'name_7'
p133
V
p134
sS'name_6'
p135
V
p136
sS'name_5'
p137
VSoy_MQ_17h_start
p138
sS'name_4'
p139
V-
p140
sS'name_3'
p141
VTrupro_MQ_17h_start
p142
sS'name_2'
p143
V-
p144
sS'name_1'
p145
VTrupro_74H2O_24h_start
p146
sg55
VAlice and Leonie
p147
sg57
I00
sS'scatt_time_11'
p148
F600.0
sS'scatt_time_12'
p149
F600.0
sS'trans_enabled_2'
p150
I00
sS'trans_enabled_1'
p151
I01
sS'scatt_time_10'
p152
F600.0
sS'trans_enabled_4'
p153
I00
sS'trans_enabled_3'
p154
I00
sS'trans_enabled_6'
p155
I00
sS'trans_enabled_5'
p156
I00
sS'trans_enabled_8'
p157
I00
sS'trans_enabled_7'
p158
I00
sS'trans_enabled_9'
p159
I00
sS'scatt_enabled_1'
p160
I01
sS'name_10'
p161
V
p162
sS'scatt_enabled_3'
p163
I00
sS'scatt_enabled_2'
p164
I00
sS'thickness_2'
p165
F0.0
sS'name_11'
p166
V
p167
sS'thickness_1'
p168
F0.0
sS'name_12'
p169
V
p170
sS'thickness_4'
p171
F0.0
sS'scatt_enabled_9'
p172
I00
sS'thickness_3'
p173
F0.0
sS'scatt_enabled_8'
p174
I00
sS'trans_enabled_12'
p175
I00
sS'thickness_6'
p176
F0.0
sS'trans_enabled_11'
p177
I00
sS'thickness_5'
p178
F0.0
sS'trans_enabled_10'
p179
I00
sS'scatt_enabled_5'
p180
I00
sS'thickness_8'
p181
F0.0
sS'scatt_enabled_4'
p182
I00
sg93
V
p183
sS'thickness_7'
p184
F0.0
sS'scatt_enabled_7'
p185
I00
sS'scatt_enabled_6'
p186
I00
sS'thickness_9'
p187
F0.0
sa(dp188
g2
Vbs4(65.8)\u000aatt_pos(1)
p189
sg4
F0.0
sg5
F600.0
sS'scatt_time_5'
p190
F600.0
sS'scatt_enabled_12'
p191
I00
sS'scatt_time_4'
p192
F600.0
sS'scatt_enabled_11'
p193
I00
sS'scatt_time_7'
p194
F600.0
sS'scatt_time_6'
p195
F600.0
sS'scatt_time_9'
p196
F600.0
sS'scatt_time_8'
p197
F600.0
sS'scatt_enabled_10'
p198
I00
sS'trans_time_12'
p199
F300.0
sS'scatt_time_1'
p200
F600.0
sS'scatt_time_3'
p201
F600.0
sS'trans_time_11'
p202
F300.0
sS'scatt_time_2'
p203
F600.0
sS'trans_time_10'
p204
F300.0
sS'trans_time_1'
p205
F300.0
sS'thickness_12'
p206
F0.0
sS'trans_time_2'
p207
F300.0
sS'thickness_10'
p208
F0.0
sg25
I00
sS'thickness_11'
p209
F0.0
sS'trans_time_9'
p210
F300.0
sg28
F300.0
sS'trans_time_7'
p211
F300.0
sS'trans_time_8'
p212
F300.0
sS'trans_time_5'
p213
F300.0
sS'trans_time_6'
p214
F300.0
sS'trans_time_3'
p215
F300.0
sS'trans_time_4'
p216
F300.0
sg35
Vatt_pos(2)\u000abs4(0.0)
p217
sS'name_9'
p218
V
p219
sS'name_8'
p220
V
p221
sS'name_7'
p222
V
p223
sS'name_6'
p224
V
p225
sS'name_5'
p226
VSoy_MQ_17h_start
p227
sS'name_4'
p228
V-
p229
sS'name_3'
p230
VTrupro_MQ_17h_start
p231
sS'name_2'
p232
V-
p233
sS'name_1'
p234
VTrupro_74H2O_24h_start
p235
sg55
VAlice and Leonie
p236
sg57
I00
sS'scatt_time_11'
p237
F600.0
sS'scatt_time_12'
p238
F600.0
sS'trans_enabled_2'
p239
I00
sS'trans_enabled_1'
p240
I01
sS'scatt_time_10'
p241
F600.0
sS'trans_enabled_4'
p242
I00
sS'trans_enabled_3'
p243
I00
sS'trans_enabled_6'
p244
I00
sS'trans_enabled_5'
p245
I00
sS'trans_enabled_8'
p246
I00
sS'trans_enabled_7'
p247
I00
sS'trans_enabled_9'
p248
I00
sS'scatt_enabled_1'
p249
I01
sS'name_10'
p250
V
p251
sS'scatt_enabled_3'
p252
I00
sS'scatt_enabled_2'
p253
I00
sS'thickness_2'
p254
F0.0
sS'name_11'
p255
V
p256
sS'thickness_1'
p257
F0.0
sS'name_12'
p258
V
p259
sS'thickness_4'
p260
F0.0
sS'scatt_enabled_9'
p261
I00
sS'thickness_3'
p262
F0.0
sS'scatt_enabled_8'
p263
I00
sS'trans_enabled_12'
p264
I00
sS'thickness_6'
p265
F0.0
sS'trans_enabled_11'
p266
I00
sS'thickness_5'
p267
F0.0
sS'trans_enabled_10'
p268
I00
sS'scatt_enabled_5'
p269
I00
sS'thickness_8'
p270
F0.0
sS'scatt_enabled_4'
p271
I00
sg93
V
p272
sS'thickness_7'
p273
F0.0
sS'scatt_enabled_7'
p274
I00
sS'scatt_enabled_6'
p275
I00
sS'thickness_9'
p276
F0.0
sa.