(lp0
(dp1
S'scatt_setup'
p2
Vbs4(65.8)\u000aatt_pos(1)
p3
sS'scatt_time'
p4
F3600.0
sS'scatt_time_5'
p5
F3600.0
sS'scatt_time_4'
p6
F1.0
sS'scatt_time_7'
p7
F3600.0
sS'scatt_time_6'
p8
F3600.0
sS'scatt_time_9'
p9
F3600.0
sS'scatt_time_8'
p10
F3600.0
sS'scatt_enabled_10'
p11
I00
sS'scatt_time_1'
p12
F3600.0
sS'scatt_time_3'
p13
F3600.0
sS'scatt_time_2'
p14
F600.0
sS'trans_time_10'
p15
F60.0
sS'trans_time_1'
p16
F60.0
sS'trans_time_2'
p17
F60.0
sS'trans_enabled'
p18
I00
sS'trans_time_9'
p19
F60.0
sS'trans_time'
p20
F60.0
sS'trans_time_7'
p21
F60.0
sS'trans_time_8'
p22
F60.0
sS'trans_time_5'
p23
F60.0
sS'trans_time_6'
p24
F60.0
sS'trans_time_3'
p25
F60.0
sS'trans_time_4'
p26
F60.0
sS'trans_setup'
p27
Vatt_pos(3)\u000abs4(0.0)
p28
sS'name_9'
p29
V
p30
sS'name_8'
p31
V
p32
sS'name_7'
p33
V
p34
sS'name_6'
p35
VD2O_demountable_cell
p36
sS'name_5'
p37
VEmpty_demountable_cell
p38
sS'name_4'
p39
VGel_withoutShear
p40
sS'name_3'
p41
Vwater in demountable 1mm cell
p42
sS'name_2'
p43
Vblocked beam
p44
sS'name_1'
p45
Vempty beam
p46
sS'title'
p47
VRheometer_Howard_13m_5A
p48
sS'scatt_enabled'
p49
I00
sS'trans_enabled_2'
p50
I00
sS'trans_enabled_1'
p51
I00
sS'scatt_time_10'
p52
F3600.0
sS'trans_enabled_4'
p53
I00
sS'trans_enabled_3'
p54
I00
sS'trans_enabled_6'
p55
I00
sS'trans_enabled_5'
p56
I00
sS'trans_enabled_8'
p57
I00
sS'trans_enabled_7'
p58
I00
sS'trans_enabled_9'
p59
I00
sS'scatt_enabled_1'
p60
I00
sS'name_10'
p61
V
p62
sS'scatt_enabled_3'
p63
I01
sS'scatt_enabled_2'
p64
I00
sS'scatt_enabled_9'
p65
I00
sS'scatt_enabled_8'
p66
I00
sS'trans_enabled_10'
p67
I00
sS'scatt_enabled_5'
p68
I00
sS'scatt_enabled_4'
p69
I00
sS'config'
p70
Vnguide(2,'D40','D40')\u000aDetector.det =12842\u000aDetector.curtaindet = 5842\u000aDetector.curtainl = 280\u000aDetector.curtainr = 280\u000aDetector.curtainu = 150\u000aDetector.curtaind = 150\u000aDetector.drive()
p71
sS'scatt_enabled_7'
p72
I00
sS'scatt_enabled_6'
p73
I00
sa(dp74
g2
Vbs4(65.8)\u000aatt_pos(1)
p75
sg4
F3600.0
sS'scatt_time_5'
p76
F3600.0
sS'scatt_time_4'
p77
F1.0
sS'scatt_time_7'
p78
F3600.0
sS'scatt_time_6'
p79
F3600.0
sS'scatt_time_9'
p80
F3600.0
sS'scatt_time_8'
p81
F3600.0
sS'scatt_enabled_10'
p82
I00
sS'scatt_time_1'
p83
F3600.0
sS'scatt_time_3'
p84
F3600.0
sS'scatt_time_2'
p85
F600.0
sS'trans_time_10'
p86
F60.0
sS'trans_time_1'
p87
F60.0
sS'trans_time_2'
p88
F60.0
sg18
I00
sS'trans_time_9'
p89
F60.0
sg20
F60.0
sS'trans_time_7'
p90
F60.0
sS'trans_time_8'
p91
F60.0
sS'trans_time_5'
p92
F60.0
sS'trans_time_6'
p93
F60.0
sS'trans_time_3'
p94
F60.0
sS'trans_time_4'
p95
F60.0
sg27
Vatt_pos(3)\u000abs4(0.0)
p96
sS'name_9'
p97
V
p98
sS'name_8'
p99
V
p100
sS'name_7'
p101
V
p102
sS'name_6'
p103
VD2O_demountable_cell
p104
sS'name_5'
p105
VEmpty_demountable_cell
p106
sS'name_4'
p107
VGel_withoutShear
p108
sS'name_3'
p109
Vwater in demountable 1mm cell
p110
sS'name_2'
p111
Vblocked beam
p112
sS'name_1'
p113
Vempty beam
p114
sg47
VRheometer_Howard_13m_5A
p115
sg49
I00
sS'trans_enabled_2'
p116
I00
sS'trans_enabled_1'
p117
I00
sS'scatt_time_10'
p118
F3600.0
sS'trans_enabled_4'
p119
I00
sS'trans_enabled_3'
p120
I00
sS'trans_enabled_6'
p121
I00
sS'trans_enabled_5'
p122
I00
sS'trans_enabled_8'
p123
I00
sS'trans_enabled_7'
p124
I00
sS'trans_enabled_9'
p125
I00
sS'scatt_enabled_1'
p126
I00
sS'name_10'
p127
V
p128
sS'scatt_enabled_3'
p129
I01
sS'scatt_enabled_2'
p130
I00
sS'scatt_enabled_9'
p131
I00
sS'scatt_enabled_8'
p132
I00
sS'trans_enabled_10'
p133
I00
sS'scatt_enabled_5'
p134
I00
sS'scatt_enabled_4'
p135
I00
sg70
Vnguide(2,'D40','D40')\u000aDetector.det =12842\u000aDetector.curtaindet = 5842\u000aDetector.curtainl = 280\u000aDetector.curtainr = 280\u000aDetector.curtainu = 150\u000aDetector.curtaind = 150\u000aDetector.drive()
p136
sS'scatt_enabled_7'
p137
I00
sS'scatt_enabled_6'
p138
I01
sa(dp139
g2
Vbs4(65.8)\u000aatt_pos(1)
p140
sg4
F3600.0
sS'scatt_time_5'
p141
F3600.0
sS'scatt_time_4'
p142
F1.0
sS'scatt_time_7'
p143
F3600.0
sS'scatt_time_6'
p144
F3600.0
sS'scatt_time_9'
p145
F3600.0
sS'scatt_time_8'
p146
F3600.0
sS'scatt_enabled_10'
p147
I00
sS'scatt_time_1'
p148
F3600.0
sS'scatt_time_3'
p149
F3600.0
sS'scatt_time_2'
p150
F600.0
sS'trans_time_10'
p151
F60.0
sS'trans_time_1'
p152
F60.0
sS'trans_time_2'
p153
F60.0
sg18
I00
sS'trans_time_9'
p154
F60.0
sg20
F60.0
sS'trans_time_7'
p155
F60.0
sS'trans_time_8'
p156
F60.0
sS'trans_time_5'
p157
F60.0
sS'trans_time_6'
p158
F60.0
sS'trans_time_3'
p159
F60.0
sS'trans_time_4'
p160
F60.0
sg27
Vatt_pos(3)\u000abs4(0.0)
p161
sS'name_9'
p162
V
p163
sS'name_8'
p164
V
p165
sS'name_7'
p166
V
p167
sS'name_6'
p168
VD2O_demountable_cell
p169
sS'name_5'
p170
VEmpty_demountable_cell
p171
sS'name_4'
p172
VGel_withoutShear
p173
sS'name_3'
p174
Vwater in demountable 1mm cell
p175
sS'name_2'
p176
Vblocked beam
p177
sS'name_1'
p178
Vempty beam
p179
sg47
VRheometer_Howard_13m_5A
p180
sg49
I00
sS'trans_enabled_2'
p181
I00
sS'trans_enabled_1'
p182
I00
sS'scatt_time_10'
p183
F3600.0
sS'trans_enabled_4'
p184
I00
sS'trans_enabled_3'
p185
I00
sS'trans_enabled_6'
p186
I00
sS'trans_enabled_5'
p187
I00
sS'trans_enabled_8'
p188
I00
sS'trans_enabled_7'
p189
I00
sS'trans_enabled_9'
p190
I00
sS'scatt_enabled_1'
p191
I00
sS'name_10'
p192
V
p193
sS'scatt_enabled_3'
p194
I01
sS'scatt_enabled_2'
p195
I00
sS'scatt_enabled_9'
p196
I00
sS'scatt_enabled_8'
p197
I00
sS'trans_enabled_10'
p198
I00
sS'scatt_enabled_5'
p199
I00
sS'scatt_enabled_4'
p200
I00
sg70
Vnguide(2,'D40','D40')\u000aDetector.det =12842\u000aDetector.curtaindet = 5842\u000aDetector.curtainl = 280\u000aDetector.curtainr = 280\u000aDetector.curtainu = 150\u000aDetector.curtaind = 150\u000aDetector.drive()
p201
sS'scatt_enabled_7'
p202
I00
sS'scatt_enabled_6'
p203
I00
sa(dp204
g2
Vbs4(65.8)\u000aatt_pos(1)
p205
sg4
F3600.0
sS'scatt_time_5'
p206
F3600.0
sS'scatt_time_4'
p207
F1.0
sS'scatt_time_7'
p208
F3600.0
sS'scatt_time_6'
p209
F3600.0
sS'scatt_time_9'
p210
F3600.0
sS'scatt_time_8'
p211
F3600.0
sS'scatt_enabled_10'
p212
I00
sS'scatt_time_1'
p213
F3600.0
sS'scatt_time_3'
p214
F3600.0
sS'scatt_time_2'
p215
F600.0
sS'trans_time_10'
p216
F60.0
sS'trans_time_1'
p217
F60.0
sS'trans_time_2'
p218
F60.0
sg18
I00
sS'trans_time_9'
p219
F60.0
sg20
F60.0
sS'trans_time_7'
p220
F60.0
sS'trans_time_8'
p221
F60.0
sS'trans_time_5'
p222
F60.0
sS'trans_time_6'
p223
F60.0
sS'trans_time_3'
p224
F60.0
sS'trans_time_4'
p225
F60.0
sg27
Vatt_pos(3)\u000abs4(0.0)
p226
sS'name_9'
p227
V
p228
sS'name_8'
p229
V
p230
sS'name_7'
p231
V
p232
sS'name_6'
p233
VD2O_demountable_cell
p234
sS'name_5'
p235
VEmpty_demountable_cell
p236
sS'name_4'
p237
VGel_withoutShear
p238
sS'name_3'
p239
Vwater in demountable 1mm cell
p240
sS'name_2'
p241
Vblocked beam
p242
sS'name_1'
p243
Vempty beam
p244
sg47
VRheometer_Howard_13m_5A
p245
sg49
I00
sS'trans_enabled_2'
p246
I00
sS'trans_enabled_1'
p247
I00
sS'scatt_time_10'
p248
F3600.0
sS'trans_enabled_4'
p249
I00
sS'trans_enabled_3'
p250
I00
sS'trans_enabled_6'
p251
I00
sS'trans_enabled_5'
p252
I00
sS'trans_enabled_8'
p253
I00
sS'trans_enabled_7'
p254
I00
sS'trans_enabled_9'
p255
I00
sS'scatt_enabled_1'
p256
I00
sS'name_10'
p257
V
p258
sS'scatt_enabled_3'
p259
I01
sS'scatt_enabled_2'
p260
I00
sS'scatt_enabled_9'
p261
I00
sS'scatt_enabled_8'
p262
I00
sS'trans_enabled_10'
p263
I00
sS'scatt_enabled_5'
p264
I00
sS'scatt_enabled_4'
p265
I00
sg70
Vnguide(2,'D40','D40')\u000aDetector.det =12842\u000aDetector.curtaindet = 5842\u000aDetector.curtainl = 280\u000aDetector.curtainr = 280\u000aDetector.curtainu = 150\u000aDetector.curtaind = 150\u000aDetector.drive()
p266
sS'scatt_enabled_7'
p267
I00
sS'scatt_enabled_6'
p268
I00
sa(dp269
g2
Vbs4(65.8)\u000aatt_pos(1)
p270
sg4
F3600.0
sS'scatt_time_5'
p271
F3600.0
sS'scatt_time_4'
p272
F1.0
sS'scatt_time_7'
p273
F3600.0
sS'scatt_time_6'
p274
F3600.0
sS'scatt_time_9'
p275
F3600.0
sS'scatt_time_8'
p276
F3600.0
sS'scatt_enabled_10'
p277
I00
sS'scatt_time_1'
p278
F3600.0
sS'scatt_time_3'
p279
F60.0
sS'scatt_time_2'
p280
F600.0
sS'trans_time_10'
p281
F60.0
sS'trans_time_1'
p282
F60.0
sS'trans_time_2'
p283
F60.0
sg18
I00
sS'trans_time_9'
p284
F60.0
sg20
F60.0
sS'trans_time_7'
p285
F60.0
sS'trans_time_8'
p286
F60.0
sS'trans_time_5'
p287
F60.0
sS'trans_time_6'
p288
F60.0
sS'trans_time_3'
p289
F60.0
sS'trans_time_4'
p290
F60.0
sg27
Vatt_pos(3)\u000abs4(0.0)
p291
sS'name_9'
p292
V
p293
sS'name_8'
p294
V
p295
sS'name_7'
p296
V
p297
sS'name_6'
p298
VD2O_demountable_cell
p299
sS'name_5'
p300
VEmpty_demountable_cell
p301
sS'name_4'
p302
VGel_withoutShear
p303
sS'name_3'
p304
Vwater in demountable 1mm cell
p305
sS'name_2'
p306
Vblocked beam
p307
sS'name_1'
p308
Vempty beam
p309
sg47
VRheometer_Howard_13m_5A
p310
sg49
I00
sS'trans_enabled_2'
p311
I00
sS'trans_enabled_1'
p312
I00
sS'scatt_time_10'
p313
F3600.0
sS'trans_enabled_4'
p314
I00
sS'trans_enabled_3'
p315
I01
sS'trans_enabled_6'
p316
I00
sS'trans_enabled_5'
p317
I00
sS'trans_enabled_8'
p318
I00
sS'trans_enabled_7'
p319
I00
sS'trans_enabled_9'
p320
I00
sS'scatt_enabled_1'
p321
I00
sS'name_10'
p322
V
p323
sS'scatt_enabled_3'
p324
I01
sS'scatt_enabled_2'
p325
I00
sS'scatt_enabled_9'
p326
I00
sS'scatt_enabled_8'
p327
I00
sS'trans_enabled_10'
p328
I00
sS'scatt_enabled_5'
p329
I00
sS'scatt_enabled_4'
p330
I00
sg70
Vnguide(2,'D40','D40')\u000aDetector.det =12842\u000aDetector.curtaindet = 5842\u000aDetector.curtainl = 280\u000aDetector.curtainr = 280\u000aDetector.curtainu = 150\u000aDetector.curtaind = 150\u000aDetector.drive()
p331
sS'scatt_enabled_7'
p332
I00
sS'scatt_enabled_6'
p333
I00
sa.