(lp0
(dp1
S'scatt_setup'
p2
V
p3
sS'thickness'
p4
F0.0
sS'scatt_time'
p5
F120.0
sS'scatt_time_5'
p6
F120.0
sS'scatt_enabled_12'
p7
I01
sS'scatt_time_4'
p8
F120.0
sS'scatt_enabled_11'
p9
I01
sS'scatt_time_7'
p10
F120.0
sS'scatt_time_6'
p11
F120.0
sS'scatt_time_9'
p12
F120.0
sS'scatt_time_8'
p13
F120.0
sS'scatt_enabled_10'
p14
I01
sS'trans_time_12'
p15
F60.0
sS'scatt_time_1'
p16
F120.0
sS'scatt_time_3'
p17
F120.0
sS'trans_time_11'
p18
F60.0
sS'scatt_time_2'
p19
F120.0
sS'trans_time_10'
p20
F60.0
sS'trans_time_1'
p21
F60.0
sS'thickness_12'
p22
F0.0
sS'trans_time_2'
p23
F60.0
sS'thickness_10'
p24
F0.0
sS'trans_enabled'
p25
I01
sS'thickness_11'
p26
F0.0
sS'trans_time_9'
p27
F60.0
sS'trans_time'
p28
F60.0
sS'trans_time_7'
p29
F60.0
sS'trans_time_8'
p30
F60.0
sS'trans_time_5'
p31
F60.0
sS'trans_time_6'
p32
F60.0
sS'trans_time_3'
p33
F60.0
sS'trans_time_4'
p34
F60.0
sS'trans_setup'
p35
V
p36
sS'name_9'
p37
V
p38
sS'name_8'
p39
V
p40
sS'name_7'
p41
V
p42
sS'name_6'
p43
V
p44
sS'name_5'
p45
V
p46
sS'name_4'
p47
V
p48
sS'name_3'
p49
V
p50
sS'name_2'
p51
V
p52
sS'name_1'
p53
V
p54
sS'title'
p55
VL1=#_L2=#_ctn=#_name=WB4
p56
sS'scatt_enabled'
p57
I01
sS'scatt_time_11'
p58
F120.0
sS'scatt_time_12'
p59
F120.0
sS'trans_enabled_2'
p60
I01
sS'trans_enabled_1'
p61
I01
sS'scatt_time_10'
p62
F120.0
sS'trans_enabled_4'
p63
I01
sS'trans_enabled_3'
p64
I01
sS'trans_enabled_6'
p65
I01
sS'trans_enabled_5'
p66
I01
sS'trans_enabled_8'
p67
I01
sS'trans_enabled_7'
p68
I01
sS'trans_enabled_9'
p69
I01
sS'scatt_enabled_1'
p70
I01
sS'name_10'
p71
V
p72
sS'scatt_enabled_3'
p73
I01
sS'scatt_enabled_2'
p74
I01
sS'thickness_2'
p75
F0.0
sS'name_11'
p76
V
p77
sS'thickness_1'
p78
F0.0
sS'name_12'
p79
V
p80
sS'thickness_4'
p81
F0.0
sS'scatt_enabled_9'
p82
I01
sS'thickness_3'
p83
F0.0
sS'scatt_enabled_8'
p84
I01
sS'trans_enabled_12'
p85
I01
sS'thickness_6'
p86
F0.0
sS'trans_enabled_11'
p87
I01
sS'thickness_5'
p88
F0.0
sS'trans_enabled_10'
p89
I01
sS'scatt_enabled_5'
p90
I01
sS'thickness_8'
p91
F0.0
sS'scatt_enabled_4'
p92
I01
sS'config'
p93
V
p94
sS'thickness_7'
p95
F0.0
sS'scatt_enabled_7'
p96
I01
sS'scatt_enabled_6'
p97
I01
sS'thickness_9'
p98
F0.0
sa(dp99
g2
V
p100
sg4
F0.0
sg5
F120.0
sS'scatt_time_5'
p101
F120.0
sS'scatt_enabled_12'
p102
I01
sS'scatt_time_4'
p103
F120.0
sS'scatt_enabled_11'
p104
I01
sS'scatt_time_7'
p105
F120.0
sS'scatt_time_6'
p106
F120.0
sS'scatt_time_9'
p107
F120.0
sS'scatt_time_8'
p108
F120.0
sS'scatt_enabled_10'
p109
I01
sS'trans_time_12'
p110
F60.0
sS'scatt_time_1'
p111
F120.0
sS'scatt_time_3'
p112
F120.0
sS'trans_time_11'
p113
F60.0
sS'scatt_time_2'
p114
F120.0
sS'trans_time_10'
p115
F60.0
sS'trans_time_1'
p116
F60.0
sS'thickness_12'
p117
F0.0
sS'trans_time_2'
p118
F60.0
sS'thickness_10'
p119
F0.0
sg25
I01
sS'thickness_11'
p120
F0.0
sS'trans_time_9'
p121
F60.0
sg28
F60.0
sS'trans_time_7'
p122
F60.0
sS'trans_time_8'
p123
F60.0
sS'trans_time_5'
p124
F60.0
sS'trans_time_6'
p125
F60.0
sS'trans_time_3'
p126
F60.0
sS'trans_time_4'
p127
F60.0
sg35
V
p128
sS'name_9'
p129
V
p130
sS'name_8'
p131
V
p132
sS'name_7'
p133
V
p134
sS'name_6'
p135
V
p136
sS'name_5'
p137
V
p138
sS'name_4'
p139
V
p140
sS'name_3'
p141
V
p142
sS'name_2'
p143
V
p144
sS'name_1'
p145
V
p146
sg55
VL1=#_L2=#_ctn=#_name=WB5
p147
sg57
I01
sS'scatt_time_11'
p148
F120.0
sS'scatt_time_12'
p149
F120.0
sS'trans_enabled_2'
p150
I01
sS'trans_enabled_1'
p151
I01
sS'scatt_time_10'
p152
F120.0
sS'trans_enabled_4'
p153
I01
sS'trans_enabled_3'
p154
I01
sS'trans_enabled_6'
p155
I01
sS'trans_enabled_5'
p156
I01
sS'trans_enabled_8'
p157
I01
sS'trans_enabled_7'
p158
I01
sS'trans_enabled_9'
p159
I01
sS'scatt_enabled_1'
p160
I01
sS'name_10'
p161
V
p162
sS'scatt_enabled_3'
p163
I01
sS'scatt_enabled_2'
p164
I01
sS'thickness_2'
p165
F0.0
sS'name_11'
p166
V
p167
sS'thickness_1'
p168
F0.0
sS'name_12'
p169
V
p170
sS'thickness_4'
p171
F0.0
sS'scatt_enabled_9'
p172
I01
sS'thickness_3'
p173
F0.0
sS'scatt_enabled_8'
p174
I01
sS'trans_enabled_12'
p175
I01
sS'thickness_6'
p176
F0.0
sS'trans_enabled_11'
p177
I01
sS'thickness_5'
p178
F0.0
sS'trans_enabled_10'
p179
I01
sS'scatt_enabled_5'
p180
I01
sS'thickness_8'
p181
F0.0
sS'scatt_enabled_4'
p182
I01
sg93
V
p183
sS'thickness_7'
p184
F0.0
sS'scatt_enabled_7'
p185
I01
sS'scatt_enabled_6'
p186
I01
sS'thickness_9'
p187
F0.0
sa(dp188
g2
V
p189
sg4
F0.0
sg5
F120.0
sS'scatt_time_5'
p190
F120.0
sS'scatt_enabled_12'
p191
I01
sS'scatt_time_4'
p192
F120.0
sS'scatt_enabled_11'
p193
I01
sS'scatt_time_7'
p194
F120.0
sS'scatt_time_6'
p195
F120.0
sS'scatt_time_9'
p196
F120.0
sS'scatt_time_8'
p197
F120.0
sS'scatt_enabled_10'
p198
I01
sS'trans_time_12'
p199
F60.0
sS'scatt_time_1'
p200
F120.0
sS'scatt_time_3'
p201
F120.0
sS'trans_time_11'
p202
F60.0
sS'scatt_time_2'
p203
F120.0
sS'trans_time_10'
p204
F60.0
sS'trans_time_1'
p205
F60.0
sS'thickness_12'
p206
F0.0
sS'trans_time_2'
p207
F60.0
sS'thickness_10'
p208
F0.0
sg25
I01
sS'thickness_11'
p209
F0.0
sS'trans_time_9'
p210
F60.0
sg28
F60.0
sS'trans_time_7'
p211
F60.0
sS'trans_time_8'
p212
F60.0
sS'trans_time_5'
p213
F60.0
sS'trans_time_6'
p214
F60.0
sS'trans_time_3'
p215
F60.0
sS'trans_time_4'
p216
F60.0
sg35
V
p217
sS'name_9'
p218
V
p219
sS'name_8'
p220
V
p221
sS'name_7'
p222
V
p223
sS'name_6'
p224
V
p225
sS'name_5'
p226
V
p227
sS'name_4'
p228
V
p229
sS'name_3'
p230
V
p231
sS'name_2'
p232
V
p233
sS'name_1'
p234
V
p235
sg55
VL1=#_L2=#_ctn=#_name=WB6
p236
sg57
I01
sS'scatt_time_11'
p237
F120.0
sS'scatt_time_12'
p238
F120.0
sS'trans_enabled_2'
p239
I01
sS'trans_enabled_1'
p240
I01
sS'scatt_time_10'
p241
F120.0
sS'trans_enabled_4'
p242
I01
sS'trans_enabled_3'
p243
I01
sS'trans_enabled_6'
p244
I01
sS'trans_enabled_5'
p245
I01
sS'trans_enabled_8'
p246
I01
sS'trans_enabled_7'
p247
I01
sS'trans_enabled_9'
p248
I01
sS'scatt_enabled_1'
p249
I01
sS'name_10'
p250
V
p251
sS'scatt_enabled_3'
p252
I01
sS'scatt_enabled_2'
p253
I01
sS'thickness_2'
p254
F0.0
sS'name_11'
p255
V
p256
sS'thickness_1'
p257
F0.0
sS'name_12'
p258
V
p259
sS'thickness_4'
p260
F0.0
sS'scatt_enabled_9'
p261
I01
sS'thickness_3'
p262
F0.0
sS'scatt_enabled_8'
p263
I01
sS'trans_enabled_12'
p264
I01
sS'thickness_6'
p265
F0.0
sS'trans_enabled_11'
p266
I01
sS'thickness_5'
p267
F0.0
sS'trans_enabled_10'
p268
I01
sS'scatt_enabled_5'
p269
I01
sS'thickness_8'
p270
F0.0
sS'scatt_enabled_4'
p271
I01
sg93
V
p272
sS'thickness_7'
p273
F0.0
sS'scatt_enabled_7'
p274
I01
sS'scatt_enabled_6'
p275
I01
sS'thickness_9'
p276
F0.0
sa(dp277
g2
V
p278
sg4
F0.0
sg5
F120.0
sS'scatt_time_5'
p279
F120.0
sS'scatt_enabled_12'
p280
I01
sS'scatt_time_4'
p281
F120.0
sS'scatt_enabled_11'
p282
I01
sS'scatt_time_7'
p283
F120.0
sS'scatt_time_6'
p284
F120.0
sS'scatt_time_9'
p285
F120.0
sS'scatt_time_8'
p286
F120.0
sS'scatt_enabled_10'
p287
I01
sS'trans_time_12'
p288
F60.0
sS'scatt_time_1'
p289
F120.0
sS'scatt_time_3'
p290
F120.0
sS'trans_time_11'
p291
F60.0
sS'scatt_time_2'
p292
F120.0
sS'trans_time_10'
p293
F60.0
sS'trans_time_1'
p294
F60.0
sS'thickness_12'
p295
F0.0
sS'trans_time_2'
p296
F60.0
sS'thickness_10'
p297
F0.0
sg25
I01
sS'thickness_11'
p298
F0.0
sS'trans_time_9'
p299
F60.0
sg28
F60.0
sS'trans_time_7'
p300
F60.0
sS'trans_time_8'
p301
F60.0
sS'trans_time_5'
p302
F60.0
sS'trans_time_6'
p303
F60.0
sS'trans_time_3'
p304
F60.0
sS'trans_time_4'
p305
F60.0
sg35
V
p306
sS'name_9'
p307
V
p308
sS'name_8'
p309
V
p310
sS'name_7'
p311
V
p312
sS'name_6'
p313
V
p314
sS'name_5'
p315
V
p316
sS'name_4'
p317
V
p318
sS'name_3'
p319
V
p320
sS'name_2'
p321
V
p322
sS'name_1'
p323
V
p324
sg55
VL1=#_L2=#_ctn=#_name=WB7
p325
sg57
I01
sS'scatt_time_11'
p326
F120.0
sS'scatt_time_12'
p327
F120.0
sS'trans_enabled_2'
p328
I01
sS'trans_enabled_1'
p329
I01
sS'scatt_time_10'
p330
F120.0
sS'trans_enabled_4'
p331
I01
sS'trans_enabled_3'
p332
I01
sS'trans_enabled_6'
p333
I01
sS'trans_enabled_5'
p334
I01
sS'trans_enabled_8'
p335
I01
sS'trans_enabled_7'
p336
I01
sS'trans_enabled_9'
p337
I01
sS'scatt_enabled_1'
p338
I01
sS'name_10'
p339
V
p340
sS'scatt_enabled_3'
p341
I01
sS'scatt_enabled_2'
p342
I01
sS'thickness_2'
p343
F0.0
sS'name_11'
p344
V
p345
sS'thickness_1'
p346
F0.0
sS'name_12'
p347
V
p348
sS'thickness_4'
p349
F0.0
sS'scatt_enabled_9'
p350
I01
sS'thickness_3'
p351
F0.0
sS'scatt_enabled_8'
p352
I01
sS'trans_enabled_12'
p353
I01
sS'thickness_6'
p354
F0.0
sS'trans_enabled_11'
p355
I01
sS'thickness_5'
p356
F0.0
sS'trans_enabled_10'
p357
I01
sS'scatt_enabled_5'
p358
I01
sS'thickness_8'
p359
F0.0
sS'scatt_enabled_4'
p360
I01
sg93
V
p361
sS'thickness_7'
p362
F0.0
sS'scatt_enabled_7'
p363
I01
sS'scatt_enabled_6'
p364
I01
sS'thickness_9'
p365
F0.0
sa.