(lp0
(dp1
S'name_3'
p2
VEmptyRheometer
p3
sS'name_2'
p4
V
p5
sS'name_1'
p6
V
p7
sS'scatt_setup'
p8
Vbs4(65.8)\u000aatt_pos(1)
p9
sS'scatt_time'
p10
F120.0
sS'scatt_time_5'
p11
F120.0
sS'scatt_time_4'
p12
F120.0
sS'title'
p13
VRheometer_Howard_13m_5A
p14
sS'scatt_enabled'
p15
I00
sS'scatt_time_1'
p16
F120.0
sS'scatt_time_3'
p17
F1800.0
sS'scatt_time_2'
p18
F120.0
sS'trans_enabled_2'
p19
I00
sS'trans_enabled_1'
p20
I00
sS'trans_enabled_4'
p21
I00
sS'trans_enabled_3'
p22
I01
sS'trans_time_1'
p23
F60.0
sS'trans_time_2'
p24
F60.0
sS'trans_enabled_5'
p25
I00
sS'trans_enabled'
p26
I00
sS'trans_time'
p27
F60.0
sS'trans_time_5'
p28
F60.0
sS'trans_time_3'
p29
F60.0
sS'trans_time_4'
p30
F60.0
sS'scatt_enabled_1'
p31
I00
sS'scatt_enabled_3'
p32
I01
sS'scatt_enabled_2'
p33
I00
sS'trans_setup'
p34
Vatt_pos(3)\u000abs4(0.0)
p35
sS'scatt_enabled_5'
p36
I00
sS'config'
p37
Vnguide(2,'D40','D40')\u000aDetector.det =12842\u000aDetector.curtaindet = 5842\u000aDetector.curtainl = 280\u000aDetector.curtainr = 280\u000aDetector.curtainu = 150\u000aDetector.curtaind = 150\u000aDetector.drive()
p38
sS'scatt_enabled_4'
p39
I00
sS'name_5'
p40
VEmptyBeam
p41
sS'name_4'
p42
V
p43
sa.