(lp0
(dp1
S'scatt_setup'
p2
Vbs4(65.8)\u000aatt_pos(1)
p3
sS'scatt_time'
p4
F1800.0
sS'scatt_time_5'
p5
F1800.0
sS'scatt_time_4'
p6
F1800.0
sS'scatt_time_7'
p7
F1800.0
sS'scatt_time_6'
p8
F1800.0
sS'scatt_time_9'
p9
F1800.0
sS'scatt_time_8'
p10
F1800.0
sS'scatt_enabled_10'
p11
I00
sS'scatt_time_1'
p12
F1800.0
sS'scatt_time_3'
p13
F1800.0
sS'scatt_time_2'
p14
F1800.0
sS'trans_time_10'
p15
F300.0
sS'trans_time_1'
p16
F300.0
sS'trans_time_2'
p17
F300.0
sS'trans_enabled'
p18
I00
sS'trans_time_9'
p19
F300.0
sS'trans_time'
p20
F300.0
sS'trans_time_7'
p21
F300.0
sS'trans_time_8'
p22
F300.0
sS'trans_time_5'
p23
F300.0
sS'trans_time_6'
p24
F300.0
sS'trans_time_3'
p25
F300.0
sS'trans_time_4'
p26
F300.0
sS'trans_setup'
p27
Vatt_pos(2)\u000abs4(0.0)
p28
sS'name_9'
p29
V
p30
sS'name_8'
p31
V
p32
sS'name_7'
p33
V7.R-NaCl0.005M
p34
sS'name_6'
p35
V6.R-NaCl0.05M
p36
sS'name_5'
p37
V5.R-NaCl0.5M
p38
sS'name_4'
p39
V4.R-NaCl1.0M
p40
sS'name_3'
p41
V3.R-NaAc0.005M
p42
sS'name_2'
p43
V2.R-NaAc0.05M
p44
sS'name_1'
p45
V1.R-NaAc0.5M
p46
sS'title'
p47
VRob_17m_setting2
p48
sS'scatt_enabled'
p49
I00
sS'trans_enabled_2'
p50
I01
sS'trans_enabled_1'
p51
I01
sS'scatt_time_10'
p52
F1800.0
sS'trans_enabled_4'
p53
I01
sS'trans_enabled_3'
p54
I01
sS'trans_enabled_6'
p55
I01
sS'trans_enabled_5'
p56
I01
sS'trans_enabled_8'
p57
I00
sS'trans_enabled_7'
p58
I01
sS'trans_enabled_9'
p59
I00
sS'scatt_enabled_1'
p60
I01
sS'name_10'
p61
V
p62
sS'scatt_enabled_3'
p63
I01
sS'scatt_enabled_2'
p64
I01
sS'scatt_enabled_9'
p65
I00
sS'scatt_enabled_8'
p66
I00
sS'trans_enabled_10'
p67
I00
sS'scatt_enabled_5'
p68
I01
sS'scatt_enabled_4'
p69
I01
sS'config'
p70
Vnguide(0,'D40','D40')\u000aDetector.det = 16842\u000aDetector.curtaindet = 9842\u000aDetector.curtainl = 350\u000aDetector.curtainr = 350\u000aDetector.curtainu = 250\u000aDetector.curtaind = 250\u000aDetector.drive()\u000asapmot('D15')
p71
sS'scatt_enabled_7'
p72
I01
sS'scatt_enabled_6'
p73
I01
sa(dp74
g2
Vbs4(65.8)\u000aatt_pos(1)
p75
sg4
F1800.0
sS'scatt_time_5'
p76
F1800.0
sS'scatt_time_4'
p77
F1800.0
sS'scatt_time_7'
p78
F1800.0
sS'scatt_time_6'
p79
F1800.0
sS'scatt_time_9'
p80
F1800.0
sS'scatt_time_8'
p81
F1800.0
sS'scatt_enabled_10'
p82
I00
sS'scatt_time_1'
p83
F1800.0
sS'scatt_time_3'
p84
F1800.0
sS'scatt_time_2'
p85
F1800.0
sS'trans_time_10'
p86
F300.0
sS'trans_time_1'
p87
F300.0
sS'trans_time_2'
p88
F300.0
sg18
I00
sS'trans_time_9'
p89
F300.0
sg20
F300.0
sS'trans_time_7'
p90
F300.0
sS'trans_time_8'
p91
F300.0
sS'trans_time_5'
p92
F300.0
sS'trans_time_6'
p93
F300.0
sS'trans_time_3'
p94
F300.0
sS'trans_time_4'
p95
F300.0
sg27
Vatt_pos(3)\u000abs4(0.0)
p96
sS'name_9'
p97
V
p98
sS'name_8'
p99
V
p100
sS'name_7'
p101
V7.R-NaCl0.005M
p102
sS'name_6'
p103
V6.R-NaCl0.05M
p104
sS'name_5'
p105
V5.R-NaCl0.5M
p106
sS'name_4'
p107
V4.R-NaCl1.0M
p108
sS'name_3'
p109
V3.R-NaAc0.005M
p110
sS'name_2'
p111
V2.R-NaAc0.05M
p112
sS'name_1'
p113
V1.R-NaAc0.5M
p114
sg47
VRob_6m_setting
p115
sg49
I00
sS'trans_enabled_2'
p116
I00
sS'trans_enabled_1'
p117
I00
sS'scatt_time_10'
p118
F1800.0
sS'trans_enabled_4'
p119
I00
sS'trans_enabled_3'
p120
I00
sS'trans_enabled_6'
p121
I00
sS'trans_enabled_5'
p122
I00
sS'trans_enabled_8'
p123
I00
sS'trans_enabled_7'
p124
I00
sS'trans_enabled_9'
p125
I00
sS'scatt_enabled_1'
p126
I01
sS'name_10'
p127
V
p128
sS'scatt_enabled_3'
p129
I01
sS'scatt_enabled_2'
p130
I01
sS'scatt_enabled_9'
p131
I00
sS'scatt_enabled_8'
p132
I00
sS'trans_enabled_10'
p133
I00
sS'scatt_enabled_5'
p134
I01
sS'scatt_enabled_4'
p135
I01
sg70
Vnguide(5,'D40','D40')\u000aDetector.det = 5842\u000aDetector.curtaindet = 1642\u000aDetector.curtainl = 160\u000aDetector.curtainr = 160\u000aDetector.curtainu = 120\u000aDetector.curtaind = 120\u000aDetector.drive()\u000asapmot('D15')
p136
sS'scatt_enabled_7'
p137
I01
sS'scatt_enabled_6'
p138
I01
sa(dp139
g2
Vbs4(65.8)\u000aatt_pos(1)
p140
sg4
F1800.0
sS'scatt_time_5'
p141
F1800.0
sS'scatt_time_4'
p142
F1800.0
sS'scatt_time_7'
p143
F1800.0
sS'scatt_time_6'
p144
F1800.0
sS'scatt_time_9'
p145
F1800.0
sS'scatt_time_8'
p146
F1800.0
sS'scatt_enabled_10'
p147
I00
sS'scatt_time_1'
p148
F1800.0
sS'scatt_time_3'
p149
F1800.0
sS'scatt_time_2'
p150
F1800.0
sS'trans_time_10'
p151
F300.0
sS'trans_time_1'
p152
F300.0
sS'trans_time_2'
p153
F300.0
sg18
I00
sS'trans_time_9'
p154
F300.0
sg20
F300.0
sS'trans_time_7'
p155
F300.0
sS'trans_time_8'
p156
F300.0
sS'trans_time_5'
p157
F300.0
sS'trans_time_6'
p158
F300.0
sS'trans_time_3'
p159
F300.0
sS'trans_time_4'
p160
F300.0
sg27
Vatt_pos(3)\u000abs4(0.0)
p161
sS'name_9'
p162
V
p163
sS'name_8'
p164
V
p165
sS'name_7'
p166
V7.R-NaCl0.005M
p167
sS'name_6'
p168
V6.R-NaCl0.05M
p169
sS'name_5'
p170
V5.R-NaCl0.5M
p171
sS'name_4'
p172
V4.R-NaCl1.0M
p173
sS'name_3'
p174
V3.R-NaAc0.005M
p175
sS'name_2'
p176
V2.R-NaAc0.05M
p177
sS'name_1'
p178
V1.R-NaAc0.5M
p179
sg47
VRob_6m_setting
p180
sg49
I00
sS'trans_enabled_2'
p181
I00
sS'trans_enabled_1'
p182
I00
sS'scatt_time_10'
p183
F1800.0
sS'trans_enabled_4'
p184
I00
sS'trans_enabled_3'
p185
I00
sS'trans_enabled_6'
p186
I00
sS'trans_enabled_5'
p187
I00
sS'trans_enabled_8'
p188
I00
sS'trans_enabled_7'
p189
I00
sS'trans_enabled_9'
p190
I00
sS'scatt_enabled_1'
p191
I01
sS'name_10'
p192
V
p193
sS'scatt_enabled_3'
p194
I01
sS'scatt_enabled_2'
p195
I01
sS'scatt_enabled_9'
p196
I00
sS'scatt_enabled_8'
p197
I00
sS'trans_enabled_10'
p198
I00
sS'scatt_enabled_5'
p199
I01
sS'scatt_enabled_4'
p200
I01
sg70
Vnguide(5,'D40','D40')\u000aDetector.det = 5842\u000aDetector.curtaindet = 1642\u000aDetector.curtainl = 160\u000aDetector.curtainr = 160\u000aDetector.curtainu = 120\u000aDetector.curtaind = 120\u000aDetector.drive()\u000asapmot('D15')
p201
sS'scatt_enabled_7'
p202
I01
sS'scatt_enabled_6'
p203
I01
sa(dp204
g2
Vbs4(65.8)\u000aatt_pos(1)
p205
sg4
F1800.0
sS'scatt_time_5'
p206
F1800.0
sS'scatt_time_4'
p207
F1800.0
sS'scatt_time_7'
p208
F1800.0
sS'scatt_time_6'
p209
F1800.0
sS'scatt_time_9'
p210
F1800.0
sS'scatt_time_8'
p211
F3600.0
sS'scatt_enabled_10'
p212
I00
sS'scatt_time_1'
p213
F1800.0
sS'scatt_time_3'
p214
F1800.0
sS'scatt_time_2'
p215
F1800.0
sS'trans_time_10'
p216
F300.0
sS'trans_time_1'
p217
F300.0
sS'trans_time_2'
p218
F300.0
sg18
I00
sS'trans_time_9'
p219
F300.0
sg20
F300.0
sS'trans_time_7'
p220
F300.0
sS'trans_time_8'
p221
F600.0
sS'trans_time_5'
p222
F300.0
sS'trans_time_6'
p223
F300.0
sS'trans_time_3'
p224
F300.0
sS'trans_time_4'
p225
F300.0
sg27
Vatt_pos(3)\u000abs4(0.0)
p226
sS'name_9'
p227
V
p228
sS'name_8'
p229
VLeonie_test
p230
sS'name_7'
p231
V7.R-NaCl0.005M
p232
sS'name_6'
p233
V6.R-NaCl0.05M
p234
sS'name_5'
p235
V5.R-NaCl0.5M
p236
sS'name_4'
p237
V4.R-NaCl1.0M
p238
sS'name_3'
p239
V3.R-NaAc0.005M
p240
sS'name_2'
p241
V2.R-NaAc0.05M
p242
sS'name_1'
p243
V1.R-NaAc0.5M
p244
sg47
VRob_6m_setting
p245
sg49
I00
sS'trans_enabled_2'
p246
I00
sS'trans_enabled_1'
p247
I00
sS'scatt_time_10'
p248
F1800.0
sS'trans_enabled_4'
p249
I00
sS'trans_enabled_3'
p250
I00
sS'trans_enabled_6'
p251
I00
sS'trans_enabled_5'
p252
I00
sS'trans_enabled_8'
p253
I01
sS'trans_enabled_7'
p254
I00
sS'trans_enabled_9'
p255
I00
sS'scatt_enabled_1'
p256
I00
sS'name_10'
p257
V
p258
sS'scatt_enabled_3'
p259
I00
sS'scatt_enabled_2'
p260
I00
sS'scatt_enabled_9'
p261
I00
sS'scatt_enabled_8'
p262
I01
sS'trans_enabled_10'
p263
I00
sS'scatt_enabled_5'
p264
I00
sS'scatt_enabled_4'
p265
I00
sg70
Vnguide(5,'D40','D40')\u000aDetector.det = 5842\u000aDetector.curtaindet = 1642\u000aDetector.curtainl = 160\u000aDetector.curtainr = 160\u000aDetector.curtainu = 120\u000aDetector.curtaind = 120\u000aDetector.drive()\u000asapmot('D15')
p266
sS'scatt_enabled_7'
p267
I00
sS'scatt_enabled_6'
p268
I00
sa.