(lp0
(dp1
S'scatt_setup'
p2
Vbs4(65.8)\u000aatt_pos(1)
p3
sS'scatt_time'
p4
F10800.0
sS'scatt_time_5'
p5
F10800.0
sS'scatt_time_4'
p6
F10800.0
sS'scatt_time_7'
p7
F10800.0
sS'scatt_time_6'
p8
F10800.0
sS'scatt_time_9'
p9
F10800.0
sS'scatt_time_8'
p10
F10800.0
sS'scatt_enabled_10'
p11
I01
sS'scatt_time_1'
p12
F10800.0
sS'scatt_time_3'
p13
F10800.0
sS'scatt_time_2'
p14
F10800.0
sS'trans_time_10'
p15
F600.0
sS'trans_time_1'
p16
F600.0
sS'trans_time_2'
p17
F600.0
sS'trans_enabled'
p18
I01
sS'trans_time_9'
p19
F600.0
sS'trans_time'
p20
F600.0
sS'trans_time_7'
p21
F600.0
sS'trans_time_8'
p22
F600.0
sS'trans_time_5'
p23
F600.0
sS'trans_time_6'
p24
F600.0
sS'trans_time_3'
p25
F600.0
sS'trans_time_4'
p26
F600.0
sS'trans_setup'
p27
Vatt_pos(2)\u000abs4(0.0)
p28
sS'name_9'
p29
VL7y_20C
p30
sS'name_8'
p31
VL6y_20C
p32
sS'name_7'
p33
VL5y_20C
p34
sS'name_6'
p35
VL4y_20C
p36
sS'name_5'
p37
VL3y_20C
p38
sS'name_4'
p39
VL2y_20C
p40
sS'name_3'
p41
VL1y_20C
p42
sS'name_2'
p43
VH2O
p44
sS'name_1'
p45
VEmptyBeam(TempSensor)
p46
sS'title'
p47
Vafter freezer overnight
p48
sS'scatt_enabled'
p49
I00
sS'trans_enabled_2'
p50
I00
sS'trans_enabled_1'
p51
I00
sS'scatt_time_10'
p52
F600.0
sS'trans_enabled_4'
p53
I01
sS'trans_enabled_3'
p54
I01
sS'trans_enabled_6'
p55
I01
sS'trans_enabled_5'
p56
I00
sS'trans_enabled_8'
p57
I01
sS'trans_enabled_7'
p58
I01
sS'trans_enabled_9'
p59
I01
sS'scatt_enabled_1'
p60
I00
sS'name_10'
p61
VMo8
p62
sS'scatt_enabled_3'
p63
I01
sS'scatt_enabled_2'
p64
I00
sS'scatt_enabled_9'
p65
I01
sS'scatt_enabled_8'
p66
I01
sS'trans_enabled_10'
p67
I00
sS'scatt_enabled_5'
p68
I00
sS'scatt_enabled_4'
p69
I01
sS'config'
p70
Vnguide(5,'D40','D40')\u000aDetector.det = 5842\u000aDetector.curtaindet = 1642\u000aDetector.curtainl = 200\u000aDetector.curtainr = 200\u000aDetector.curtainu = 150\u000aDetector.curtaind = 150\u000aDetector.drive()\u000asapmot('D7.5')
p71
sS'scatt_enabled_7'
p72
I01
sS'scatt_enabled_6'
p73
I01
sa(dp74
g2
Vbs4(65.8)\u000aatt_pos(1)
p75
sg4
F10800.0
sS'scatt_time_5'
p76
F10800.0
sS'scatt_time_4'
p77
F10800.0
sS'scatt_time_7'
p78
F10800.0
sS'scatt_time_6'
p79
F10800.0
sS'scatt_time_9'
p80
F10800.0
sS'scatt_time_8'
p81
F10800.0
sS'scatt_enabled_10'
p82
I00
sS'scatt_time_1'
p83
F10800.0
sS'scatt_time_3'
p84
F10800.0
sS'scatt_time_2'
p85
F10800.0
sS'trans_time_10'
p86
F600.0
sS'trans_time_1'
p87
F600.0
sS'trans_time_2'
p88
F600.0
sg18
I01
sS'trans_time_9'
p89
F600.0
sg20
F600.0
sS'trans_time_7'
p90
F600.0
sS'trans_time_8'
p91
F600.0
sS'trans_time_5'
p92
F600.0
sS'trans_time_6'
p93
F600.0
sS'trans_time_3'
p94
F600.0
sS'trans_time_4'
p95
F600.0
sg27
Vatt_pos(2)\u000abs4(0.0)
p96
sS'name_9'
p97
VL7y_20C
p98
sS'name_8'
p99
VL6y_20C
p100
sS'name_7'
p101
VL5y_20C
p102
sS'name_6'
p103
VL4y_20C
p104
sS'name_5'
p105
VL3y_20C
p106
sS'name_4'
p107
VL2y_20C
p108
sS'name_3'
p109
VL1y_20C
p110
sS'name_2'
p111
VH2O
p112
sS'name_1'
p113
VEmptyBeam(TempSensor)
p114
sg47
Vafter freezer overnight
p115
sg49
I00
sS'trans_enabled_2'
p116
I01
sS'trans_enabled_1'
p117
I01
sS'scatt_time_10'
p118
F600.0
sS'trans_enabled_4'
p119
I00
sS'trans_enabled_3'
p120
I00
sS'trans_enabled_6'
p121
I00
sS'trans_enabled_5'
p122
I00
sS'trans_enabled_8'
p123
I00
sS'trans_enabled_7'
p124
I00
sS'trans_enabled_9'
p125
I00
sS'scatt_enabled_1'
p126
I00
sS'name_10'
p127
VMo8
p128
sS'scatt_enabled_3'
p129
I00
sS'scatt_enabled_2'
p130
I01
sS'scatt_enabled_9'
p131
I00
sS'scatt_enabled_8'
p132
I00
sS'trans_enabled_10'
p133
I00
sS'scatt_enabled_5'
p134
I00
sS'scatt_enabled_4'
p135
I00
sg70
V
p136
sS'scatt_enabled_7'
p137
I00
sS'scatt_enabled_6'
p138
I00
sa.