(lp0
(dp1
S'scatt_setup'
p2
Vbs4(65.8)\u000aatt_pos(1)
p3
sS'scatt_time'
p4
F3600.0
sS'scatt_time_5'
p5
F3600.0
sS'scatt_time_4'
p6
F3600.0
sS'scatt_time_7'
p7
F3600.0
sS'scatt_time_6'
p8
F3600.0
sS'scatt_time_9'
p9
F3600.0
sS'scatt_time_8'
p10
F3600.0
sS'scatt_enabled_10'
p11
I00
sS'scatt_time_1'
p12
F3600.0
sS'scatt_time_3'
p13
F3600.0
sS'scatt_time_2'
p14
F3600.0
sS'trans_time_10'
p15
F500.0
sS'trans_time_1'
p16
F500.0
sS'trans_time_2'
p17
F500.0
sS'trans_enabled'
p18
I00
sS'trans_time_9'
p19
F500.0
sS'trans_time'
p20
F500.0
sS'trans_time_7'
p21
F500.0
sS'trans_time_8'
p22
F500.0
sS'trans_time_5'
p23
F500.0
sS'trans_time_6'
p24
F500.0
sS'trans_time_3'
p25
F500.0
sS'trans_time_4'
p26
F500.0
sS'trans_setup'
p27
Vatt_pos(2)\u000abs4(0.0)
p28
sS'name_9'
p29
V
p30
sS'name_8'
p31
V
p32
sS'name_7'
p33
V
p34
sS'name_6'
p35
V
p36
sS'name_5'
p37
VD2O_4mm
p38
sS'name_4'
p39
VH_4mm
p40
sS'name_3'
p41
VEmptyCell
p42
sS'name_2'
p43
VBlockedBeam
p44
sS'name_1'
p45
VEmptyBeam
p46
sS'title'
p47
Vstandard setup
p48
sS'scatt_enabled'
p49
I00
sS'trans_enabled_2'
p50
I00
sS'trans_enabled_1'
p51
I01
sS'scatt_time_10'
p52
F3600.0
sS'trans_enabled_4'
p53
I01
sS'trans_enabled_3'
p54
I00
sS'trans_enabled_6'
p55
I00
sS'trans_enabled_5'
p56
I00
sS'trans_enabled_8'
p57
I00
sS'trans_enabled_7'
p58
I00
sS'trans_enabled_9'
p59
I00
sS'scatt_enabled_1'
p60
I00
sS'name_10'
p61
V
p62
sS'scatt_enabled_3'
p63
I00
sS'scatt_enabled_2'
p64
I00
sS'scatt_enabled_9'
p65
I00
sS'scatt_enabled_8'
p66
I00
sS'trans_enabled_10'
p67
I00
sS'scatt_enabled_5'
p68
I00
sS'scatt_enabled_4'
p69
I01
sS'config'
p70
V
p71
sS'scatt_enabled_7'
p72
I00
sS'scatt_enabled_6'
p73
I00
sa(dp74
g2
Vbs4(65.8)\u000aatt_pos(1)
p75
sg4
F3600.0
sS'scatt_time_5'
p76
F3600.0
sS'scatt_time_4'
p77
F3600.0
sS'scatt_time_7'
p78
F3600.0
sS'scatt_time_6'
p79
F3600.0
sS'scatt_time_9'
p80
F3600.0
sS'scatt_time_8'
p81
F3600.0
sS'scatt_enabled_10'
p82
I00
sS'scatt_time_1'
p83
F3600.0
sS'scatt_time_3'
p84
F3600.0
sS'scatt_time_2'
p85
F3600.0
sS'trans_time_10'
p86
F500.0
sS'trans_time_1'
p87
F500.0
sS'trans_time_2'
p88
F500.0
sg18
I00
sS'trans_time_9'
p89
F500.0
sg20
F500.0
sS'trans_time_7'
p90
F500.0
sS'trans_time_8'
p91
F500.0
sS'trans_time_5'
p92
F500.0
sS'trans_time_6'
p93
F500.0
sS'trans_time_3'
p94
F500.0
sS'trans_time_4'
p95
F500.0
sg27
Vatt_pos(2)\u000abs4(0.0)
p96
sS'name_9'
p97
VMOxs_H7rpt_25C
p98
sS'name_8'
p99
VMOxs_H4rpt_25C
p100
sS'name_7'
p101
VMOxs_H100_temp45
p102
sS'name_6'
p103
VMOxs_H9_25C
p104
sS'name_5'
p105
VMOxs_H7old_25C
p106
sS'name_4'
p107
VMOxs_H4old_25C
p108
sS'name_3'
p109
VMOxs_H0_25C
p110
sS'name_2'
p111
VEmptyCell
p112
sS'name_1'
p113
V
p114
sg47
Vstandard setup
p115
sg49
I00
sS'trans_enabled_2'
p116
I00
sS'trans_enabled_1'
p117
I00
sS'scatt_time_10'
p118
F3600.0
sS'trans_enabled_4'
p119
I00
sS'trans_enabled_3'
p120
I00
sS'trans_enabled_6'
p121
I00
sS'trans_enabled_5'
p122
I00
sS'trans_enabled_8'
p123
I00
sS'trans_enabled_7'
p124
I00
sS'trans_enabled_9'
p125
I00
sS'scatt_enabled_1'
p126
I00
sS'name_10'
p127
V
p128
sS'scatt_enabled_3'
p129
I00
sS'scatt_enabled_2'
p130
I00
sS'scatt_enabled_9'
p131
I00
sS'scatt_enabled_8'
p132
I00
sS'trans_enabled_10'
p133
I00
sS'scatt_enabled_5'
p134
I00
sS'scatt_enabled_4'
p135
I00
sg70
Vsics.drive('tc1_setpoint',45)
p136
sS'scatt_enabled_7'
p137
I00
sS'scatt_enabled_6'
p138
I00
sa(dp139
g2
Vbs4(65.8)\u000aatt_pos(1)
p140
sg4
F3600.0
sS'scatt_time_5'
p141
F3600.0
sS'scatt_time_4'
p142
F3600.0
sS'scatt_time_7'
p143
F3600.0
sS'scatt_time_6'
p144
F3600.0
sS'scatt_time_9'
p145
F7200.0
sS'scatt_time_8'
p146
F7200.0
sS'scatt_enabled_10'
p147
I00
sS'scatt_time_1'
p148
F3600.0
sS'scatt_time_3'
p149
F3600.0
sS'scatt_time_2'
p150
F3600.0
sS'trans_time_10'
p151
F500.0
sS'trans_time_1'
p152
F500.0
sS'trans_time_2'
p153
F500.0
sg18
I00
sS'trans_time_9'
p154
F500.0
sg20
F500.0
sS'trans_time_7'
p155
F500.0
sS'trans_time_8'
p156
F500.0
sS'trans_time_5'
p157
F500.0
sS'trans_time_6'
p158
F500.0
sS'trans_time_3'
p159
F500.0
sS'trans_time_4'
p160
F500.0
sg27
Vatt_pos(2)\u000abs4(0.0)
p161
sS'name_9'
p162
VMOxs_H7rpt_38C
p163
sS'name_8'
p164
VMOxs_H4rpt_38C
p165
sS'name_7'
p166
VMOxs_H100_38C
p167
sS'name_6'
p168
VMOxs_H9_38C
p169
sS'name_5'
p170
VMOxs_H7old_38C
p171
sS'name_4'
p172
VMOxs_H4old_38C
p173
sS'name_3'
p174
VMOxs_H0_38C
p175
sS'name_2'
p176
V
p177
sS'name_1'
p178
V
p179
sg47
Vstandard setup
p180
sg49
I00
sS'trans_enabled_2'
p181
I00
sS'trans_enabled_1'
p182
I00
sS'scatt_time_10'
p183
F3600.0
sS'trans_enabled_4'
p184
I00
sS'trans_enabled_3'
p185
I00
sS'trans_enabled_6'
p186
I00
sS'trans_enabled_5'
p187
I00
sS'trans_enabled_8'
p188
I00
sS'trans_enabled_7'
p189
I00
sS'trans_enabled_9'
p190
I00
sS'scatt_enabled_1'
p191
I00
sS'name_10'
p192
V
p193
sS'scatt_enabled_3'
p194
I01
sS'scatt_enabled_2'
p195
I00
sS'scatt_enabled_9'
p196
I01
sS'scatt_enabled_8'
p197
I01
sS'trans_enabled_10'
p198
I00
sS'scatt_enabled_5'
p199
I01
sS'scatt_enabled_4'
p200
I01
sg70
V
p201
sS'scatt_enabled_7'
p202
I01
sS'scatt_enabled_6'
p203
I01
sa.