(lp0
(dp1
S'scatt_setup'
p2
Vbs4(65.8)\u000aatt_pos(1)
p3
sS'scatt_time'
p4
F9800.0
sS'scatt_time_5'
p5
F9800.0
sS'scatt_enabled_12'
p6
I01
sS'scatt_time_4'
p7
F9800.0
sS'scatt_enabled_11'
p8
I01
sS'scatt_time_7'
p9
F9800.0
sS'scatt_time_6'
p10
F9800.0
sS'scatt_time_9'
p11
F9800.0
sS'scatt_time_8'
p12
F9800.0
sS'scatt_enabled_10'
p13
I01
sS'trans_time_12'
p14
F1200.0
sS'scatt_time_1'
p15
F9800.0
sS'scatt_time_3'
p16
F9800.0
sS'trans_time_11'
p17
F1200.0
sS'scatt_time_2'
p18
F9800.0
sS'trans_time_10'
p19
F1200.0
sS'trans_time_1'
p20
F1200.0
sS'trans_time_2'
p21
F1200.0
sS'trans_enabled'
p22
I00
sS'trans_time_9'
p23
F1200.0
sS'trans_time'
p24
F1200.0
sS'trans_time_7'
p25
F1200.0
sS'trans_time_8'
p26
F1200.0
sS'trans_time_5'
p27
F1200.0
sS'trans_time_6'
p28
F1200.0
sS'trans_time_3'
p29
F1200.0
sS'trans_time_4'
p30
F1200.0
sS'trans_setup'
p31
Vatt_pos(2)\u000abs4(0.0)
p32
sS'name_9'
p33
VB1-1
p34
sS'name_8'
p35
VB2-5_2
p36
sS'name_7'
p37
VB2-5_1
p38
sS'name_6'
p39
VB2-4
p40
sS'name_5'
p41
VB2-2
p42
sS'name_4'
p43
VF9
p44
sS'name_3'
p45
VB2-1
p46
sS'name_2'
p47
VBlockedBeam
p48
sS'name_1'
p49
VH2O
p50
sS'title'
p51
VBei
p52
sS'scatt_enabled'
p53
I01
sS'scatt_time_11'
p54
F9800.0
sS'scatt_time_12'
p55
F9800.0
sS'trans_enabled_2'
p56
I00
sS'trans_enabled_1'
p57
I00
sS'scatt_time_10'
p58
F9800.0
sS'trans_enabled_4'
p59
I00
sS'trans_enabled_3'
p60
I00
sS'trans_enabled_6'
p61
I00
sS'trans_enabled_5'
p62
I00
sS'trans_enabled_8'
p63
I00
sS'trans_enabled_7'
p64
I00
sS'trans_enabled_9'
p65
I00
sS'scatt_enabled_1'
p66
I00
sS'name_10'
p67
VB1-2
p68
sS'scatt_enabled_3'
p69
I01
sS'scatt_enabled_2'
p70
I00
sS'name_11'
p71
VB1-4
p72
sS'name_12'
p73
VB1-5
p74
sS'scatt_enabled_9'
p75
I01
sS'scatt_enabled_8'
p76
I01
sS'trans_enabled_12'
p77
I00
sS'trans_enabled_11'
p78
I00
sS'trans_enabled_10'
p79
I00
sS'scatt_enabled_5'
p80
I01
sS'scatt_enabled_4'
p81
I01
sS'config'
p82
V
p83
sS'scatt_enabled_7'
p84
I01
sS'scatt_enabled_6'
p85
I01
sa(dp86
g2
Vbs4(65.8)\u000aatt_pos(1)
p87
sg4
F7000.0
sS'scatt_time_5'
p88
F7000.0
sS'scatt_enabled_12'
p89
I00
sS'scatt_time_4'
p90
F7000.0
sS'scatt_enabled_11'
p91
I00
sS'scatt_time_7'
p92
F7000.0
sS'scatt_time_6'
p93
F7000.0
sS'scatt_time_9'
p94
F7000.0
sS'scatt_time_8'
p95
F7000.0
sS'scatt_enabled_10'
p96
I00
sS'trans_time_12'
p97
F1200.0
sS'scatt_time_1'
p98
F7000.0
sS'scatt_time_3'
p99
F7000.0
sS'trans_time_11'
p100
F1200.0
sS'scatt_time_2'
p101
F7000.0
sS'trans_time_10'
p102
F1200.0
sS'trans_time_1'
p103
F1200.0
sS'trans_time_2'
p104
F1200.0
sg22
I00
sS'trans_time_9'
p105
F1200.0
sg24
F1200.0
sS'trans_time_7'
p106
F1200.0
sS'trans_time_8'
p107
F1200.0
sS'trans_time_5'
p108
F1200.0
sS'trans_time_6'
p109
F1200.0
sS'trans_time_3'
p110
F1200.0
sS'trans_time_4'
p111
F1200.0
sg31
Vatt_pos(2)\u000abs4(0.0)
p112
sS'name_9'
p113
VB1-1
p114
sS'name_8'
p115
VB2-5_2
p116
sS'name_7'
p117
VB2-5_1
p118
sS'name_6'
p119
VB2-4
p120
sS'name_5'
p121
VB2-2
p122
sS'name_4'
p123
VF9
p124
sS'name_3'
p125
VB2-1
p126
sS'name_2'
p127
VBlockedBeam
p128
sS'name_1'
p129
VH2O
p130
sg51
VBei
p131
sg53
I00
sS'scatt_time_11'
p132
F7000.0
sS'scatt_time_12'
p133
F7000.0
sS'trans_enabled_2'
p134
I01
sS'trans_enabled_1'
p135
I01
sS'scatt_time_10'
p136
F7000.0
sS'trans_enabled_4'
p137
I00
sS'trans_enabled_3'
p138
I00
sS'trans_enabled_6'
p139
I00
sS'trans_enabled_5'
p140
I00
sS'trans_enabled_8'
p141
I00
sS'trans_enabled_7'
p142
I00
sS'trans_enabled_9'
p143
I01
sS'scatt_enabled_1'
p144
I01
sS'name_10'
p145
VB1-2
p146
sS'scatt_enabled_3'
p147
I00
sS'scatt_enabled_2'
p148
I01
sS'name_11'
p149
VB1-4
p150
sS'name_12'
p151
VB1-5
p152
sS'scatt_enabled_9'
p153
I00
sS'scatt_enabled_8'
p154
I00
sS'trans_enabled_12'
p155
I01
sS'trans_enabled_11'
p156
I01
sS'trans_enabled_10'
p157
I01
sS'scatt_enabled_5'
p158
I00
sS'scatt_enabled_4'
p159
I00
sg82
V
p160
sS'scatt_enabled_7'
p161
I00
sS'scatt_enabled_6'
p162
I00
sa(dp163
g2
Vbs4(65.8)\u000aatt_pos(1)
p164
sg4
F3600.0
sS'scatt_time_5'
p165
F3600.0
sS'scatt_enabled_12'
p166
I00
sS'scatt_time_4'
p167
F3600.0
sS'scatt_enabled_11'
p168
I00
sS'scatt_time_7'
p169
F3600.0
sS'scatt_time_6'
p170
F3600.0
sS'scatt_time_9'
p171
F3600.0
sS'scatt_time_8'
p172
F3600.0
sS'scatt_enabled_10'
p173
I00
sS'trans_time_12'
p174
F600.0
sS'scatt_time_1'
p175
F3600.0
sS'scatt_time_3'
p176
F3600.0
sS'trans_time_11'
p177
F600.0
sS'scatt_time_2'
p178
F3600.0
sS'trans_time_10'
p179
F600.0
sS'trans_time_1'
p180
F600.0
sS'trans_time_2'
p181
F600.0
sg22
I01
sS'trans_time_9'
p182
F600.0
sg24
F600.0
sS'trans_time_7'
p183
F600.0
sS'trans_time_8'
p184
F600.0
sS'trans_time_5'
p185
F600.0
sS'trans_time_6'
p186
F600.0
sS'trans_time_3'
p187
F600.0
sS'trans_time_4'
p188
F600.0
sg31
Vatt_pos(2)\u000abs4(0.0)
p189
sS'name_9'
p190
VB1-1
p191
sS'name_8'
p192
VB2-5_2
p193
sS'name_7'
p194
VB2-5_1
p195
sS'name_6'
p196
VB2-4
p197
sS'name_5'
p198
VB2-2
p199
sS'name_4'
p200
VF9
p201
sS'name_3'
p202
VB2-1
p203
sS'name_2'
p204
VBlockedBeam
p205
sS'name_1'
p206
VH2O
p207
sg51
VBei
p208
sg53
I01
sS'scatt_time_11'
p209
F3600.0
sS'scatt_time_12'
p210
F3600.0
sS'trans_enabled_2'
p211
I00
sS'trans_enabled_1'
p212
I00
sS'scatt_time_10'
p213
F3600.0
sS'trans_enabled_4'
p214
I01
sS'trans_enabled_3'
p215
I01
sS'trans_enabled_6'
p216
I01
sS'trans_enabled_5'
p217
I01
sS'trans_enabled_8'
p218
I01
sS'trans_enabled_7'
p219
I01
sS'trans_enabled_9'
p220
I01
sS'scatt_enabled_1'
p221
I00
sS'name_10'
p222
VB1-2
p223
sS'scatt_enabled_3'
p224
I01
sS'scatt_enabled_2'
p225
I01
sS'name_11'
p226
VB1-4
p227
sS'name_12'
p228
VB1-5
p229
sS'scatt_enabled_9'
p230
I00
sS'scatt_enabled_8'
p231
I01
sS'trans_enabled_12'
p232
I01
sS'trans_enabled_11'
p233
I01
sS'trans_enabled_10'
p234
I01
sS'scatt_enabled_5'
p235
I01
sS'scatt_enabled_4'
p236
I01
sg82
Vnguide(1,'D40','D40')
p237
sS'scatt_enabled_7'
p238
I01
sS'scatt_enabled_6'
p239
I01
sa(dp240
g2
Vbs4(65.8)\u000aatt_pos(1)
p241
sg4
F3600.0
sS'scatt_time_5'
p242
F3600.0
sS'scatt_enabled_12'
p243
I00
sS'scatt_time_4'
p244
F3600.0
sS'scatt_enabled_11'
p245
I00
sS'scatt_time_7'
p246
F3600.0
sS'scatt_time_6'
p247
F3600.0
sS'scatt_time_9'
p248
F3600.0
sS'scatt_time_8'
p249
F3600.0
sS'scatt_enabled_10'
p250
I00
sS'trans_time_12'
p251
F600.0
sS'scatt_time_1'
p252
F3600.0
sS'scatt_time_3'
p253
F3600.0
sS'trans_time_11'
p254
F600.0
sS'scatt_time_2'
p255
F3600.0
sS'trans_time_10'
p256
F600.0
sS'trans_time_1'
p257
F600.0
sS'trans_time_2'
p258
F600.0
sg22
I00
sS'trans_time_9'
p259
F600.0
sg24
F600.0
sS'trans_time_7'
p260
F600.0
sS'trans_time_8'
p261
F600.0
sS'trans_time_5'
p262
F600.0
sS'trans_time_6'
p263
F600.0
sS'trans_time_3'
p264
F600.0
sS'trans_time_4'
p265
F600.0
sg31
Vatt_pos(2)\u000abs4(0.0)
p266
sS'name_9'
p267
VB1-1
p268
sS'name_8'
p269
VB2-5_2
p270
sS'name_7'
p271
VB2-5_1
p272
sS'name_6'
p273
VB2-4
p274
sS'name_5'
p275
VB2-2
p276
sS'name_4'
p277
VF9
p278
sS'name_3'
p279
VB2-1
p280
sS'name_2'
p281
VBlockedBeam
p282
sS'name_1'
p283
VH2O
p284
sg51
VBei
p285
sg53
I00
sS'scatt_time_11'
p286
F3600.0
sS'scatt_time_12'
p287
F3600.0
sS'trans_enabled_2'
p288
I01
sS'trans_enabled_1'
p289
I01
sS'scatt_time_10'
p290
F3600.0
sS'trans_enabled_4'
p291
I00
sS'trans_enabled_3'
p292
I00
sS'trans_enabled_6'
p293
I00
sS'trans_enabled_5'
p294
I00
sS'trans_enabled_8'
p295
I00
sS'trans_enabled_7'
p296
I00
sS'trans_enabled_9'
p297
I00
sS'scatt_enabled_1'
p298
I01
sS'name_10'
p299
VB1-2
p300
sS'scatt_enabled_3'
p301
I00
sS'scatt_enabled_2'
p302
I01
sS'name_11'
p303
VB1-4
p304
sS'name_12'
p305
VB1-5
p306
sS'scatt_enabled_9'
p307
I00
sS'scatt_enabled_8'
p308
I00
sS'trans_enabled_12'
p309
I00
sS'trans_enabled_11'
p310
I00
sS'trans_enabled_10'
p311
I00
sS'scatt_enabled_5'
p312
I00
sS'scatt_enabled_4'
p313
I00
sg82
Vnguide(1,'D40','D40')
p314
sS'scatt_enabled_7'
p315
I00
sS'scatt_enabled_6'
p316
I00
sa.