(lp0
(dp1
S'trans_time_1'
p2
F10.0
sS'name_1'
p3
V
p4
sS'scatt_setup'
p5
V
p6
sS'thickness'
p7
F0.800000011920929
sS'scatt_time'
p8
F12.0
sS'trans_enabled'
p9
I01
sS'trans_time'
p10
F10.0
sS'title'
p11
VL1=#_L2=#_ctn=#_name=WB2
p12
sS'scatt_enabled'
p13
I01
sS'scatt_enabled_1'
p14
I01
sS'scatt_time_1'
p15
F12.0
sS'trans_setup'
p16
V
p17
sS'thickness_1'
p18
F0.10000000149011612
sS'config'
p19
V
p20
sS'trans_enabled_1'
p21
I01
sa.