(lp0
(dp1
S'scatt_setup'
p2
Vbs4(65.8)\u000aatt_pos(1)
p3
sS'scatt_time'
p4
F7200.0
sS'scatt_time_5'
p5
F7200.0
sS'scatt_enabled_12'
p6
I00
sS'scatt_time_4'
p7
F7200.0
sS'scatt_enabled_11'
p8
I00
sS'scatt_time_7'
p9
F7200.0
sS'scatt_time_6'
p10
F7200.0
sS'scatt_time_9'
p11
F7200.0
sS'scatt_time_8'
p12
F7200.0
sS'scatt_enabled_10'
p13
I00
sS'trans_time_12'
p14
F60.0
sS'scatt_time_1'
p15
F1.0
sS'scatt_time_3'
p16
F1.0
sS'trans_time_11'
p17
F60.0
sS'scatt_time_2'
p18
F1.0
sS'trans_time_10'
p19
F60.0
sS'trans_time_1'
p20
F60.0
sS'trans_time_2'
p21
F60.0
sS'trans_enabled'
p22
I00
sS'trans_time_9'
p23
F60.0
sS'trans_time'
p24
F60.0
sS'trans_time_7'
p25
F60.0
sS'trans_time_8'
p26
F60.0
sS'trans_time_5'
p27
F60.0
sS'trans_time_6'
p28
F60.0
sS'trans_time_3'
p29
F60.0
sS'trans_time_4'
p30
F60.0
sS'trans_setup'
p31
Vatt_pos(4)\u000abs4(0.0)
p32
sS'name_9'
p33
VRe_C4_0167
p34
sS'name_8'
p35
VSFNaCTAB1_3D2O
p36
sS'name_7'
p37
VSFNaCTAB1_2D2O
p38
sS'name_6'
p39
VSFNaCTAB1_1D2O
p40
sS'name_5'
p41
V
p42
sS'name_4'
p43
VSFNaPEG_CHxd
p44
sS'name_3'
p45
VSFNaD2O_CHxd
p46
sS'name_2'
p47
VCNF
p48
sS'name_1'
p49
VEmptyBeam
p50
sS'title'
p51
VLow-q
p52
sS'scatt_enabled'
p53
I00
sS'scatt_time_11'
p54
F7200.0
sS'scatt_time_12'
p55
F7200.0
sS'trans_enabled_2'
p56
I00
sS'trans_enabled_1'
p57
I00
sS'scatt_time_10'
p58
F7200.0
sS'trans_enabled_4'
p59
I00
sS'trans_enabled_3'
p60
I00
sS'trans_enabled_6'
p61
I00
sS'trans_enabled_5'
p62
I00
sS'trans_enabled_8'
p63
I00
sS'trans_enabled_7'
p64
I00
sS'trans_enabled_9'
p65
I00
sS'scatt_enabled_1'
p66
I01
sS'name_10'
p67
VRe_C4_0334
p68
sS'scatt_enabled_3'
p69
I01
sS'scatt_enabled_2'
p70
I01
sS'name_11'
p71
VRe_C4_0500
p72
sS'name_12'
p73
VRe_C4_0750
p74
sS'scatt_enabled_9'
p75
I00
sS'scatt_enabled_8'
p76
I00
sS'trans_enabled_12'
p77
I00
sS'trans_enabled_11'
p78
I00
sS'trans_enabled_10'
p79
I00
sS'scatt_enabled_5'
p80
I00
sS'scatt_enabled_4'
p81
I00
sS'config'
p82
Vsics.drive('vselspeed', 25000)\u000a\u000anguide(2,'D40','D40')\u000aDetector.det = 13844\u000aDetector.curtaind = 40\u000aDetector.drive()
p83
sS'scatt_enabled_7'
p84
I00
sS'scatt_enabled_6'
p85
I00
sa(dp86
g2
Vbs4(65.8)\u000aatt_pos(1)
p87
sg4
F7200.0
sS'scatt_time_5'
p88
F1.0
sS'scatt_enabled_12'
p89
I00
sS'scatt_time_4'
p90
F7200.0
sS'scatt_enabled_11'
p91
I00
sS'scatt_time_7'
p92
F1.0
sS'scatt_time_6'
p93
F1.0
sS'scatt_time_9'
p94
F1.0
sS'scatt_time_8'
p95
F7200.0
sS'scatt_enabled_10'
p96
I00
sS'trans_time_12'
p97
F60.0
sS'scatt_time_1'
p98
F1.0
sS'scatt_time_3'
p99
F1.0
sS'trans_time_11'
p100
F60.0
sS'scatt_time_2'
p101
F1.0
sS'trans_time_10'
p102
F60.0
sS'trans_time_1'
p103
F60.0
sS'trans_time_2'
p104
F60.0
sg22
I00
sS'trans_time_9'
p105
F60.0
sg24
F60.0
sS'trans_time_7'
p106
F60.0
sS'trans_time_8'
p107
F60.0
sS'trans_time_5'
p108
F60.0
sS'trans_time_6'
p109
F60.0
sS'trans_time_3'
p110
F60.0
sS'trans_time_4'
p111
F60.0
sg31
Vatt_pos(4)\u000abs4(0.0)
p112
sS'name_9'
p113
VRe_C4_0167
p114
sS'name_8'
p115
VSFNaCTAB1_3D2O
p116
sS'name_7'
p117
VSFNaCTAB1_2D2O
p118
sS'name_6'
p119
VSFNaCTAB1_1D2O
p120
sS'name_5'
p121
VEmptyBeam
p122
sS'name_4'
p123
VSFNaPEG_CHxd
p124
sS'name_3'
p125
VSFNaD2O_CHxd
p126
sS'name_2'
p127
VCNF
p128
sS'name_1'
p129
VEmptyBeam
p130
sg51
VLow-q
p131
sg53
I00
sS'scatt_time_11'
p132
F1.0
sS'scatt_time_12'
p133
F7200.0
sS'trans_enabled_2'
p134
I00
sS'trans_enabled_1'
p135
I01
sS'scatt_time_10'
p136
F1.0
sS'trans_enabled_4'
p137
I00
sS'trans_enabled_3'
p138
I00
sS'trans_enabled_6'
p139
I00
sS'trans_enabled_5'
p140
I00
sS'trans_enabled_8'
p141
I01
sS'trans_enabled_7'
p142
I00
sS'trans_enabled_9'
p143
I00
sS'scatt_enabled_1'
p144
I00
sS'name_10'
p145
VRe_C4_0334
p146
sS'scatt_enabled_3'
p147
I00
sS'scatt_enabled_2'
p148
I00
sS'name_11'
p149
VRe_C4_0500
p150
sS'name_12'
p151
VRe_C4_0750
p152
sS'scatt_enabled_9'
p153
I00
sS'scatt_enabled_8'
p154
I01
sS'trans_enabled_12'
p155
I00
sS'trans_enabled_11'
p156
I00
sS'trans_enabled_10'
p157
I00
sS'scatt_enabled_5'
p158
I00
sS'scatt_enabled_4'
p159
I00
sg82
V
p160
sS'scatt_enabled_7'
p161
I00
sS'scatt_enabled_6'
p162
I00
sa(dp163
g2
Vbs4(65.8)\u000aatt_pos(1)
p164
sg4
F7200.0
sS'scatt_time_5'
p165
F7200.0
sS'scatt_enabled_12'
p166
I00
sS'scatt_time_4'
p167
F7200.0
sS'scatt_enabled_11'
p168
I00
sS'scatt_time_7'
p169
F7200.0
sS'scatt_time_6'
p170
F7200.0
sS'scatt_time_9'
p171
F7200.0
sS'scatt_time_8'
p172
F7200.0
sS'scatt_enabled_10'
p173
I00
sS'trans_time_12'
p174
F60.0
sS'scatt_time_1'
p175
F1.0
sS'scatt_time_3'
p176
F1.0
sS'trans_time_11'
p177
F60.0
sS'scatt_time_2'
p178
F1.0
sS'trans_time_10'
p179
F60.0
sS'trans_time_1'
p180
F60.0
sS'trans_time_2'
p181
F60.0
sg22
I00
sS'trans_time_9'
p182
F60.0
sg24
F60.0
sS'trans_time_7'
p183
F60.0
sS'trans_time_8'
p184
F60.0
sS'trans_time_5'
p185
F60.0
sS'trans_time_6'
p186
F60.0
sS'trans_time_3'
p187
F60.0
sS'trans_time_4'
p188
F60.0
sg31
Vatt_pos(4)\u000abs4(0.0)
p189
sS'name_9'
p190
VRe_C4_0167
p191
sS'name_8'
p192
VSFNaCTAB1_3D2O
p193
sS'name_7'
p194
VSFNaCTAB1_2D2O
p195
sS'name_6'
p196
VSFNaCTAB1_1D2O
p197
sS'name_5'
p198
VEmptyBeam
p199
sS'name_4'
p200
VSFNaPEG_CHxd
p201
sS'name_3'
p202
VSFNaD2O_CHxd
p203
sS'name_2'
p204
VCNF
p205
sS'name_1'
p206
VEmptyBeam
p207
sg51
VHigh-q
p208
sg53
I00
sS'scatt_time_11'
p209
F7200.0
sS'scatt_time_12'
p210
F7200.0
sS'trans_enabled_2'
p211
I00
sS'trans_enabled_1'
p212
I00
sS'scatt_time_10'
p213
F7200.0
sS'trans_enabled_4'
p214
I00
sS'trans_enabled_3'
p215
I00
sS'trans_enabled_6'
p216
I00
sS'trans_enabled_5'
p217
I00
sS'trans_enabled_8'
p218
I00
sS'trans_enabled_7'
p219
I00
sS'trans_enabled_9'
p220
I00
sS'scatt_enabled_1'
p221
I01
sS'name_10'
p222
VRe_C4_0334
p223
sS'scatt_enabled_3'
p224
I01
sS'scatt_enabled_2'
p225
I01
sS'name_11'
p226
VRe_C4_0500
p227
sS'name_12'
p228
VRe_C4_0750
p229
sS'scatt_enabled_9'
p230
I00
sS'scatt_enabled_8'
p231
I00
sS'trans_enabled_12'
p232
I00
sS'trans_enabled_11'
p233
I00
sS'trans_enabled_10'
p234
I00
sS'scatt_enabled_5'
p235
I00
sS'scatt_enabled_4'
p236
I00
sg82
Vsics.drive('vselspeed', 28250)\u000a\u000anguide(5,'D40','D40')\u000aDetector.det = 7844\u000aDetector.curtaind = 65\u000aDetector.drive()
p237
sS'scatt_enabled_7'
p238
I00
sS'scatt_enabled_6'
p239
I00
sa(dp240
g2
Vbs4(65.8)\u000aatt_pos(1)
p241
sg4
F7200.0
sS'scatt_time_5'
p242
F7200.0
sS'scatt_enabled_12'
p243
I01
sS'scatt_time_4'
p244
F7200.0
sS'scatt_enabled_11'
p245
I01
sS'scatt_time_7'
p246
F7200.0
sS'scatt_time_6'
p247
F7200.0
sS'scatt_time_9'
p248
F7200.0
sS'scatt_time_8'
p249
F7200.0
sS'scatt_enabled_10'
p250
I01
sS'trans_time_12'
p251
F60.0
sS'scatt_time_1'
p252
F1.0
sS'scatt_time_3'
p253
F1.0
sS'trans_time_11'
p254
F60.0
sS'scatt_time_2'
p255
F1.0
sS'trans_time_10'
p256
F60.0
sS'trans_time_1'
p257
F60.0
sS'trans_time_2'
p258
F60.0
sg22
I00
sS'trans_time_9'
p259
F60.0
sg24
F60.0
sS'trans_time_7'
p260
F60.0
sS'trans_time_8'
p261
F60.0
sS'trans_time_5'
p262
F60.0
sS'trans_time_6'
p263
F60.0
sS'trans_time_3'
p264
F60.0
sS'trans_time_4'
p265
F60.0
sg31
Vatt_pos(4)\u000abs4(0.0)
p266
sS'name_9'
p267
VRe_C4_0167
p268
sS'name_8'
p269
VSFNaCTAB1_3D2O
p270
sS'name_7'
p271
VSFNaCTAB1_2D2O
p272
sS'name_6'
p273
VSFNaCTAB1_1D2O
p274
sS'name_5'
p275
VEmptyBeam
p276
sS'name_4'
p277
VSFNaPEG_CHxd
p278
sS'name_3'
p279
VSFNaD2O_CHxd
p280
sS'name_2'
p281
VCNF
p282
sS'name_1'
p283
VEmptyBeam
p284
sg51
VHigh-q
p285
sg53
I00
sS'scatt_time_11'
p286
F7200.0
sS'scatt_time_12'
p287
F7200.0
sS'trans_enabled_2'
p288
I00
sS'trans_enabled_1'
p289
I01
sS'scatt_time_10'
p290
F7200.0
sS'trans_enabled_4'
p291
I00
sS'trans_enabled_3'
p292
I00
sS'trans_enabled_6'
p293
I00
sS'trans_enabled_5'
p294
I00
sS'trans_enabled_8'
p295
I00
sS'trans_enabled_7'
p296
I00
sS'trans_enabled_9'
p297
I01
sS'scatt_enabled_1'
p298
I00
sS'name_10'
p299
VRe_C4_0334
p300
sS'scatt_enabled_3'
p301
I00
sS'scatt_enabled_2'
p302
I00
sS'name_11'
p303
VRe_C4_0500
p304
sS'name_12'
p305
VRe_C4_0750
p306
sS'scatt_enabled_9'
p307
I01
sS'scatt_enabled_8'
p308
I00
sS'trans_enabled_12'
p309
I01
sS'trans_enabled_11'
p310
I01
sS'trans_enabled_10'
p311
I01
sS'scatt_enabled_5'
p312
I00
sS'scatt_enabled_4'
p313
I00
sg82
V
p314
sS'scatt_enabled_7'
p315
I00
sS'scatt_enabled_6'
p316
I00
sa.