(lp0
(dp1
S'scatt_setup'
p2
V
p3
sS'scatt_time'
p4
F120.0
sS'scatt_time_5'
p5
F120.0
sS'scatt_enabled_12'
p6
I00
sS'scatt_time_4'
p7
F120.0
sS'scatt_enabled_11'
p8
I00
sS'scatt_time_7'
p9
F120.0
sS'scatt_time_6'
p10
F120.0
sS'scatt_time_9'
p11
F120.0
sS'scatt_time_8'
p12
F120.0
sS'scatt_enabled_10'
p13
I00
sS'trans_time_12'
p14
F5.0
sS'scatt_time_1'
p15
F120.0
sS'scatt_time_3'
p16
F120.0
sS'trans_time_11'
p17
F5.0
sS'scatt_time_2'
p18
F120.0
sS'trans_time_10'
p19
F5.0
sS'trans_time_1'
p20
F5.0
sS'trans_time_2'
p21
F5.0
sS'trans_enabled'
p22
I01
sS'trans_time_9'
p23
F5.0
sS'trans_time'
p24
F5.0
sS'trans_time_7'
p25
F5.0
sS'trans_time_8'
p26
F5.0
sS'trans_time_5'
p27
F5.0
sS'trans_time_6'
p28
F5.0
sS'trans_time_3'
p29
F5.0
sS'trans_time_4'
p30
F5.0
sS'trans_setup'
p31
V
p32
sS'name_9'
p33
Vtest
p34
sS'name_8'
p35
Vtest
p36
sS'name_7'
p37
Vtest
p38
sS'name_6'
p39
Vtest
p40
sS'name_5'
p41
Vtest
p42
sS'name_4'
p43
Vtest
p44
sS'name_3'
p45
Vtest
p46
sS'name_2'
p47
Vtest
p48
sS'name_1'
p49
Vtest
p50
sS'title'
p51
VL1=#_L2=#_ctn=#_name=WB1
p52
sS'scatt_enabled'
p53
I00
sS'scatt_time_11'
p54
F120.0
sS'scatt_time_12'
p55
F120.0
sS'trans_enabled_2'
p56
I01
sS'trans_enabled_1'
p57
I01
sS'scatt_time_10'
p58
F120.0
sS'trans_enabled_4'
p59
I01
sS'trans_enabled_3'
p60
I01
sS'trans_enabled_6'
p61
I01
sS'trans_enabled_5'
p62
I01
sS'trans_enabled_8'
p63
I01
sS'trans_enabled_7'
p64
I01
sS'trans_enabled_9'
p65
I01
sS'scatt_enabled_1'
p66
I00
sS'name_10'
p67
Vtest
p68
sS'scatt_enabled_3'
p69
I00
sS'scatt_enabled_2'
p70
I00
sS'name_11'
p71
Vtest
p72
sS'name_12'
p73
Vtest
p74
sS'scatt_enabled_9'
p75
I00
sS'scatt_enabled_8'
p76
I00
sS'trans_enabled_12'
p77
I01
sS'trans_enabled_11'
p78
I01
sS'trans_enabled_10'
p79
I01
sS'scatt_enabled_5'
p80
I00
sS'scatt_enabled_4'
p81
I00
sS'config'
p82
V
p83
sS'scatt_enabled_7'
p84
I00
sS'scatt_enabled_6'
p85
I00
sa(dp86
g2
V
p87
sg4
F120.0
sS'scatt_time_5'
p88
F120.0
sS'scatt_enabled_12'
p89
I00
sS'scatt_time_4'
p90
F120.0
sS'scatt_enabled_11'
p91
I00
sS'scatt_time_7'
p92
F120.0
sS'scatt_time_6'
p93
F120.0
sS'scatt_time_9'
p94
F120.0
sS'scatt_time_8'
p95
F120.0
sS'scatt_enabled_10'
p96
I00
sS'trans_time_12'
p97
F5.0
sS'scatt_time_1'
p98
F120.0
sS'scatt_time_3'
p99
F120.0
sS'trans_time_11'
p100
F5.0
sS'scatt_time_2'
p101
F120.0
sS'trans_time_10'
p102
F5.0
sS'trans_time_1'
p103
F5.0
sS'trans_time_2'
p104
F5.0
sg22
I01
sS'trans_time_9'
p105
F5.0
sg24
F5.0
sS'trans_time_7'
p106
F5.0
sS'trans_time_8'
p107
F5.0
sS'trans_time_5'
p108
F5.0
sS'trans_time_6'
p109
F5.0
sS'trans_time_3'
p110
F5.0
sS'trans_time_4'
p111
F5.0
sg31
V
p112
sS'name_9'
p113
Vtest
p114
sS'name_8'
p115
Vtest
p116
sS'name_7'
p117
Vtest
p118
sS'name_6'
p119
Vtest
p120
sS'name_5'
p121
Vtest
p122
sS'name_4'
p123
Vtest
p124
sS'name_3'
p125
Vtest
p126
sS'name_2'
p127
Vtest
p128
sS'name_1'
p129
Vtest
p130
sg51
VL1=#_L2=#_ctn=#_name=WB2
p131
sg53
I00
sS'scatt_time_11'
p132
F120.0
sS'scatt_time_12'
p133
F120.0
sS'trans_enabled_2'
p134
I01
sS'trans_enabled_1'
p135
I01
sS'scatt_time_10'
p136
F120.0
sS'trans_enabled_4'
p137
I01
sS'trans_enabled_3'
p138
I01
sS'trans_enabled_6'
p139
I01
sS'trans_enabled_5'
p140
I01
sS'trans_enabled_8'
p141
I01
sS'trans_enabled_7'
p142
I01
sS'trans_enabled_9'
p143
I01
sS'scatt_enabled_1'
p144
I00
sS'name_10'
p145
Vtest
p146
sS'scatt_enabled_3'
p147
I00
sS'scatt_enabled_2'
p148
I00
sS'name_11'
p149
Vtest
p150
sS'name_12'
p151
Vtest
p152
sS'scatt_enabled_9'
p153
I00
sS'scatt_enabled_8'
p154
I00
sS'trans_enabled_12'
p155
I01
sS'trans_enabled_11'
p156
I01
sS'trans_enabled_10'
p157
I01
sS'scatt_enabled_5'
p158
I00
sS'scatt_enabled_4'
p159
I00
sg82
V
p160
sS'scatt_enabled_7'
p161
I00
sS'scatt_enabled_6'
p162
I00
sa.