(lp0
(dp1
S'scatt_setup'
p2
Vbs4(65.8)\u000aatt_pos(1)
p3
sS'scatt_time'
p4
F3600.0
sS'scatt_time_5'
p5
F3600.0
sS'scatt_time_4'
p6
F3600.0
sS'scatt_time_7'
p7
F3600.0
sS'scatt_time_6'
p8
F3600.0
sS'scatt_time_9'
p9
F3600.0
sS'scatt_time_8'
p10
F3600.0
sS'scatt_enabled_10'
p11
I01
sS'scatt_time_1'
p12
F3600.0
sS'scatt_time_3'
p13
F3600.0
sS'scatt_time_2'
p14
F3600.0
sS'trans_time_10'
p15
F300.0
sS'trans_time_1'
p16
F300.0
sS'trans_time_2'
p17
F300.0
sS'trans_enabled'
p18
I00
sS'trans_time_9'
p19
F300.0
sS'trans_time'
p20
F300.0
sS'trans_time_7'
p21
F300.0
sS'trans_time_8'
p22
F300.0
sS'trans_time_5'
p23
F300.0
sS'trans_time_6'
p24
F300.0
sS'trans_time_3'
p25
F300.0
sS'trans_time_4'
p26
F300.0
sS'trans_setup'
p27
Vatt_pos(2)\u000abs4(0.0)
p28
sS'name_9'
p29
VMO7 DAP12 Screen A9-4_tfinal
p30
sS'name_8'
p31
VMOxs_H7rpt
p32
sS'name_7'
p33
VMOxs_H4rpt
p34
sS'name_6'
p35
VMOxs_H100
p36
sS'name_5'
p37
VMOxs_H9
p38
sS'name_4'
p39
VMOxs_H7
p40
sS'name_3'
p41
VMOxs_H4
p42
sS'name_2'
p43
VMOxs_H0
p44
sS'name_1'
p45
VRob empty Al windows sapmot 12.5
p46
sS'title'
p47
VLeonie_6m_setting_blocks
p48
sS'scatt_enabled'
p49
I00
sS'trans_enabled_2'
p50
I00
sS'trans_enabled_1'
p51
I00
sS'scatt_time_10'
p52
F3600.0
sS'trans_enabled_4'
p53
I00
sS'trans_enabled_3'
p54
I00
sS'trans_enabled_6'
p55
I00
sS'trans_enabled_5'
p56
I00
sS'trans_enabled_8'
p57
I00
sS'trans_enabled_7'
p58
I00
sS'trans_enabled_9'
p59
I01
sS'scatt_enabled_1'
p60
I00
sS'name_10'
p61
VMO7 Screen A9-4_ttinal
p62
sS'scatt_enabled_3'
p63
I00
sS'scatt_enabled_2'
p64
I00
sS'scatt_enabled_9'
p65
I01
sS'scatt_enabled_8'
p66
I00
sS'trans_enabled_10'
p67
I01
sS'scatt_enabled_5'
p68
I00
sS'scatt_enabled_4'
p69
I00
sS'config'
p70
Vnguide(5,'D40','D40')\u000aDetector.det = 5842\u000aDetector.curtaindet = 1642\u000aDetector.curtainl = 200\u000aDetector.curtainr = 200\u000aDetector.curtainu = 150\u000aDetector.curtaind = 150\u000aDetector.drive()\u000asapmot('D7.5')
p71
sS'scatt_enabled_7'
p72
I00
sS'scatt_enabled_6'
p73
I00
sa(dp74
g2
Vbs4(65.8)\u000aatt_pos(1)
p75
sg4
F3600.0
sS'scatt_time_5'
p76
F3600.0
sS'scatt_time_4'
p77
F3600.0
sS'scatt_time_7'
p78
F3600.0
sS'scatt_time_6'
p79
F3600.0
sS'scatt_time_9'
p80
F3600.0
sS'scatt_time_8'
p81
F3600.0
sS'scatt_enabled_10'
p82
I00
sS'scatt_time_1'
p83
F1200.0
sS'scatt_time_3'
p84
F3600.0
sS'scatt_time_2'
p85
F3600.0
sS'trans_time_10'
p86
F300.0
sS'trans_time_1'
p87
F300.0
sS'trans_time_2'
p88
F300.0
sg18
I00
sS'trans_time_9'
p89
F300.0
sg20
F300.0
sS'trans_time_7'
p90
F300.0
sS'trans_time_8'
p91
F300.0
sS'trans_time_5'
p92
F300.0
sS'trans_time_6'
p93
F300.0
sS'trans_time_3'
p94
F300.0
sS'trans_time_4'
p95
F300.0
sg27
Vatt_pos(3)\u000abs4(0.0)
p96
sS'name_9'
p97
VMO7 DAP12 Screen A9-4_tfinal
p98
sS'name_8'
p99
VMOxs_H7rpt
p100
sS'name_7'
p101
VMOxs_H4rpt
p102
sS'name_6'
p103
VMOxs_H100
p104
sS'name_5'
p105
VMOxs_H9
p106
sS'name_4'
p107
VMOxs_H7
p108
sS'name_3'
p109
VMOxs_H4
p110
sS'name_2'
p111
VMOxs_H0
p112
sS'name_1'
p113
VRob empty Al windows sapmot 12.5
p114
sg47
VRob_6m_setting
p115
sg49
I00
sS'trans_enabled_2'
p116
I00
sS'trans_enabled_1'
p117
I01
sS'scatt_time_10'
p118
F3600.0
sS'trans_enabled_4'
p119
I00
sS'trans_enabled_3'
p120
I00
sS'trans_enabled_6'
p121
I00
sS'trans_enabled_5'
p122
I00
sS'trans_enabled_8'
p123
I00
sS'trans_enabled_7'
p124
I00
sS'trans_enabled_9'
p125
I00
sS'scatt_enabled_1'
p126
I01
sS'name_10'
p127
VMO7 Screen A9-4_ttinal
p128
sS'scatt_enabled_3'
p129
I00
sS'scatt_enabled_2'
p130
I00
sS'scatt_enabled_9'
p131
I00
sS'scatt_enabled_8'
p132
I00
sS'trans_enabled_10'
p133
I00
sS'scatt_enabled_5'
p134
I00
sS'scatt_enabled_4'
p135
I00
sg70
Vnguide(5,'D40','D40')\u000aDetector.det = 5842\u000aDetector.curtaindet = 1642\u000aDetector.curtainl = 160\u000aDetector.curtainr = 160\u000aDetector.curtainu = 120\u000aDetector.curtaind = 120\u000aDetector.drive()\u000asapmot('D15')
p136
sS'scatt_enabled_7'
p137
I00
sS'scatt_enabled_6'
p138
I00
sa(dp139
g2
Vbs4(65.8)\u000aatt_pos(1)
p140
sg4
F3600.0
sS'scatt_time_5'
p141
F3600.0
sS'scatt_time_4'
p142
F3600.0
sS'scatt_time_7'
p143
F3600.0
sS'scatt_time_6'
p144
F3600.0
sS'scatt_time_9'
p145
F3600.0
sS'scatt_time_8'
p146
F3600.0
sS'scatt_enabled_10'
p147
I00
sS'scatt_time_1'
p148
F1200.0
sS'scatt_time_3'
p149
F3600.0
sS'scatt_time_2'
p150
F3600.0
sS'trans_time_10'
p151
F300.0
sS'trans_time_1'
p152
F300.0
sS'trans_time_2'
p153
F300.0
sg18
I00
sS'trans_time_9'
p154
F300.0
sg20
F300.0
sS'trans_time_7'
p155
F300.0
sS'trans_time_8'
p156
F300.0
sS'trans_time_5'
p157
F300.0
sS'trans_time_6'
p158
F300.0
sS'trans_time_3'
p159
F300.0
sS'trans_time_4'
p160
F300.0
sg27
Vatt_pos(2)\u000abs4(0.0)
p161
sS'name_9'
p162
VMO7 DAP12 Screen A9-4_tfinal
p163
sS'name_8'
p164
VMOxs_H7rpt
p165
sS'name_7'
p166
VMOxs_H4rpt
p167
sS'name_6'
p168
VMOxs_H100
p169
sS'name_5'
p170
VMOxs_H9
p171
sS'name_4'
p172
VMOxs_H7
p173
sS'name_3'
p174
VMOxs_H4
p175
sS'name_2'
p176
VMOxs_H0
p177
sS'name_1'
p178
VRob empty Al windows sapmot 12.5
p179
sg47
VLeonie_6m_setting_blocks
p180
sg49
I00
sS'trans_enabled_2'
p181
I01
sS'trans_enabled_1'
p182
I00
sS'scatt_time_10'
p183
F3600.0
sS'trans_enabled_4'
p184
I01
sS'trans_enabled_3'
p185
I01
sS'trans_enabled_6'
p186
I01
sS'trans_enabled_5'
p187
I01
sS'trans_enabled_8'
p188
I01
sS'trans_enabled_7'
p189
I01
sS'trans_enabled_9'
p190
I00
sS'scatt_enabled_1'
p191
I00
sS'name_10'
p192
VMO7 Screen A9-4_ttinal
p193
sS'scatt_enabled_3'
p194
I01
sS'scatt_enabled_2'
p195
I01
sS'scatt_enabled_9'
p196
I00
sS'scatt_enabled_8'
p197
I01
sS'trans_enabled_10'
p198
I00
sS'scatt_enabled_5'
p199
I01
sS'scatt_enabled_4'
p200
I01
sg70
Vnguide(5,'D40','D40')\u000aDetector.det = 5842\u000aDetector.curtaindet = 1642\u000aDetector.curtainl = 200\u000aDetector.curtainr = 200\u000aDetector.curtainu = 150\u000aDetector.curtaind = 150\u000aDetector.drive()\u000asapmot('D7.5')
p201
sS'scatt_enabled_7'
p202
I01
sS'scatt_enabled_6'
p203
I01
sa.