(lp0
(dp1
S'scatt_setup'
p2
Vbs4(65.8)\u000aatt_pos(1)
p3
sS'scatt_time'
p4
F10000.0
sS'scatt_time_5'
p5
F10000.0
sS'scatt_enabled_12'
p6
I00
sS'scatt_time_4'
p7
F10000.0
sS'scatt_enabled_11'
p8
I00
sS'scatt_time_7'
p9
F10000.0
sS'scatt_time_6'
p10
F10000.0
sS'scatt_time_9'
p11
F10000.0
sS'scatt_time_8'
p12
F10000.0
sS'scatt_enabled_10'
p13
I00
sS'trans_time_12'
p14
F1200.0
sS'scatt_time_1'
p15
F10000.0
sS'scatt_time_3'
p16
F10000.0
sS'trans_time_11'
p17
F1200.0
sS'scatt_time_2'
p18
F10000.0
sS'trans_time_10'
p19
F1200.0
sS'trans_time_1'
p20
F1200.0
sS'trans_time_2'
p21
F1200.0
sS'trans_enabled'
p22
I01
sS'trans_time_9'
p23
F1200.0
sS'trans_time'
p24
F1200.0
sS'trans_time_7'
p25
F1200.0
sS'trans_time_8'
p26
F1200.0
sS'trans_time_5'
p27
F1200.0
sS'trans_time_6'
p28
F1200.0
sS'trans_time_3'
p29
F1200.0
sS'trans_time_4'
p30
F1200.0
sS'trans_setup'
p31
Vatt_pos(2)\u000abs4(0.0)
p32
sS'name_9'
p33
VB1-1
p34
sS'name_8'
p35
VB2-5_2
p36
sS'name_7'
p37
VB2-5_1
p38
sS'name_6'
p39
VB2-4
p40
sS'name_5'
p41
VB2-2
p42
sS'name_4'
p43
VF9
p44
sS'name_3'
p45
VB2-1
p46
sS'name_2'
p47
VBlockedBeam
p48
sS'name_1'
p49
VH2O
p50
sS'title'
p51
VBei
p52
sS'scatt_enabled'
p53
I00
sS'scatt_time_11'
p54
F10000.0
sS'scatt_time_12'
p55
F10000.0
sS'trans_enabled_2'
p56
I00
sS'trans_enabled_1'
p57
I00
sS'scatt_time_10'
p58
F10000.0
sS'trans_enabled_4'
p59
I01
sS'trans_enabled_3'
p60
I01
sS'trans_enabled_6'
p61
I01
sS'trans_enabled_5'
p62
I01
sS'trans_enabled_8'
p63
I01
sS'trans_enabled_7'
p64
I01
sS'trans_enabled_9'
p65
I01
sS'scatt_enabled_1'
p66
I00
sS'name_10'
p67
VB1-2
p68
sS'scatt_enabled_3'
p69
I01
sS'scatt_enabled_2'
p70
I00
sS'name_11'
p71
VB1-4
p72
sS'name_12'
p73
VB1-5
p74
sS'scatt_enabled_9'
p75
I00
sS'scatt_enabled_8'
p76
I00
sS'trans_enabled_12'
p77
I00
sS'trans_enabled_11'
p78
I00
sS'trans_enabled_10'
p79
I00
sS'scatt_enabled_5'
p80
I00
sS'scatt_enabled_4'
p81
I00
sS'config'
p82
V
p83
sS'scatt_enabled_7'
p84
I00
sS'scatt_enabled_6'
p85
I00
sa(dp86
g2
Vbs4(65.8)\u000aatt_pos(1)
p87
sg4
F10000.0
sS'scatt_time_5'
p88
F10000.0
sS'scatt_enabled_12'
p89
I00
sS'scatt_time_4'
p90
F10000.0
sS'scatt_enabled_11'
p91
I00
sS'scatt_time_7'
p92
F10000.0
sS'scatt_time_6'
p93
F10000.0
sS'scatt_time_9'
p94
F10000.0
sS'scatt_time_8'
p95
F10000.0
sS'scatt_enabled_10'
p96
I00
sS'trans_time_12'
p97
F1200.0
sS'scatt_time_1'
p98
F10000.0
sS'scatt_time_3'
p99
F10000.0
sS'trans_time_11'
p100
F1200.0
sS'scatt_time_2'
p101
F10000.0
sS'trans_time_10'
p102
F1200.0
sS'trans_time_1'
p103
F1200.0
sS'trans_time_2'
p104
F1200.0
sg22
I00
sS'trans_time_9'
p105
F1200.0
sg24
F1200.0
sS'trans_time_7'
p106
F1200.0
sS'trans_time_8'
p107
F1200.0
sS'trans_time_5'
p108
F1200.0
sS'trans_time_6'
p109
F1200.0
sS'trans_time_3'
p110
F1200.0
sS'trans_time_4'
p111
F1200.0
sg31
Vatt_pos(2)\u000abs4(0.0)
p112
sS'name_9'
p113
VB1-1
p114
sS'name_8'
p115
VB2-5_2
p116
sS'name_7'
p117
VB2-5_1
p118
sS'name_6'
p119
VB2-4
p120
sS'name_5'
p121
VB2-2
p122
sS'name_4'
p123
VF9
p124
sS'name_3'
p125
VB2-1
p126
sS'name_2'
p127
VBlockedBeam
p128
sS'name_1'
p129
VH2O
p130
sg51
VBei
p131
sg53
I00
sS'scatt_time_11'
p132
F10000.0
sS'scatt_time_12'
p133
F10000.0
sS'trans_enabled_2'
p134
I00
sS'trans_enabled_1'
p135
I00
sS'scatt_time_10'
p136
F10000.0
sS'trans_enabled_4'
p137
I01
sS'trans_enabled_3'
p138
I01
sS'trans_enabled_6'
p139
I01
sS'trans_enabled_5'
p140
I01
sS'trans_enabled_8'
p141
I01
sS'trans_enabled_7'
p142
I01
sS'trans_enabled_9'
p143
I01
sS'scatt_enabled_1'
p144
I00
sS'name_10'
p145
VB1-2
p146
sS'scatt_enabled_3'
p147
I00
sS'scatt_enabled_2'
p148
I00
sS'name_11'
p149
VB1-4
p150
sS'name_12'
p151
VB1-5
p152
sS'scatt_enabled_9'
p153
I00
sS'scatt_enabled_8'
p154
I00
sS'trans_enabled_12'
p155
I01
sS'trans_enabled_11'
p156
I01
sS'trans_enabled_10'
p157
I01
sS'scatt_enabled_5'
p158
I00
sS'scatt_enabled_4'
p159
I00
sg82
Vnguide(0, D40,D40)
p160
sS'scatt_enabled_7'
p161
I00
sS'scatt_enabled_6'
p162
I00
sa(dp163
g2
Vbs4(65.8)\u000aatt_pos(1)
p164
sg4
F9600.0
sS'scatt_time_5'
p165
F9600.0
sS'scatt_enabled_12'
p166
I00
sS'scatt_time_4'
p167
F9600.0
sS'scatt_enabled_11'
p168
I00
sS'scatt_time_7'
p169
F9600.0
sS'scatt_time_6'
p170
F9600.0
sS'scatt_time_9'
p171
F9600.0
sS'scatt_time_8'
p172
F9600.0
sS'scatt_enabled_10'
p173
I00
sS'trans_time_12'
p174
F1200.0
sS'scatt_time_1'
p175
F9600.0
sS'scatt_time_3'
p176
F9600.0
sS'trans_time_11'
p177
F1200.0
sS'scatt_time_2'
p178
F9600.0
sS'trans_time_10'
p179
F1200.0
sS'trans_time_1'
p180
F1200.0
sS'trans_time_2'
p181
F1200.0
sg22
I00
sS'trans_time_9'
p182
F1200.0
sg24
F1200.0
sS'trans_time_7'
p183
F1200.0
sS'trans_time_8'
p184
F1200.0
sS'trans_time_5'
p185
F1200.0
sS'trans_time_6'
p186
F1200.0
sS'trans_time_3'
p187
F1200.0
sS'trans_time_4'
p188
F1200.0
sg31
Vatt_pos(2)\u000abs4(0.0)
p189
sS'name_9'
p190
VB1-1
p191
sS'name_8'
p192
VB2-5_2
p193
sS'name_7'
p194
VB2-5_1
p195
sS'name_6'
p196
VB2-4
p197
sS'name_5'
p198
VB2-2
p199
sS'name_4'
p200
VF9
p201
sS'name_3'
p202
VB2-1
p203
sS'name_2'
p204
VBlockedBeam
p205
sS'name_1'
p206
VH2O
p207
sg51
VBei
p208
sg53
I00
sS'scatt_time_11'
p209
F9600.0
sS'scatt_time_12'
p210
F9600.0
sS'trans_enabled_2'
p211
I00
sS'trans_enabled_1'
p212
I01
sS'scatt_time_10'
p213
F9600.0
sS'trans_enabled_4'
p214
I00
sS'trans_enabled_3'
p215
I00
sS'trans_enabled_6'
p216
I00
sS'trans_enabled_5'
p217
I00
sS'trans_enabled_8'
p218
I00
sS'trans_enabled_7'
p219
I00
sS'trans_enabled_9'
p220
I00
sS'scatt_enabled_1'
p221
I01
sS'name_10'
p222
VB1-2
p223
sS'scatt_enabled_3'
p224
I00
sS'scatt_enabled_2'
p225
I01
sS'name_11'
p226
VB1-4
p227
sS'name_12'
p228
VB1-5
p229
sS'scatt_enabled_9'
p230
I00
sS'scatt_enabled_8'
p231
I00
sS'trans_enabled_12'
p232
I00
sS'trans_enabled_11'
p233
I00
sS'trans_enabled_10'
p234
I00
sS'scatt_enabled_5'
p235
I00
sS'scatt_enabled_4'
p236
I00
sg82
V
p237
sS'scatt_enabled_7'
p238
I00
sS'scatt_enabled_6'
p239
I00
sa.