(lp0
(dp1
S'scatt_setup'
p2
Vbs4(65.8)\u000aatt_pos(1)
p3
sS'scatt_time'
p4
F7200.0
sS'scatt_time_5'
p5
F1.0
sS'scatt_enabled_12'
p6
I00
sS'scatt_time_4'
p7
F1.0
sS'scatt_enabled_11'
p8
I00
sS'scatt_time_7'
p9
F7200.0
sS'scatt_time_6'
p10
F1.0
sS'scatt_time_9'
p11
F7200.0
sS'scatt_time_8'
p12
F600.0
sS'scatt_enabled_10'
p13
I00
sS'trans_time_12'
p14
F60.0
sS'scatt_time_1'
p15
F1.0
sS'scatt_time_3'
p16
F1.0
sS'trans_time_11'
p17
F60.0
sS'scatt_time_2'
p18
F1.0
sS'trans_time_10'
p19
F60.0
sS'trans_time_1'
p20
F60.0
sS'trans_time_2'
p21
F60.0
sS'trans_enabled'
p22
I00
sS'trans_time_9'
p23
F60.0
sS'trans_time'
p24
F60.0
sS'trans_time_7'
p25
F60.0
sS'trans_time_8'
p26
F60.0
sS'trans_time_5'
p27
F60.0
sS'trans_time_6'
p28
F60.0
sS'trans_time_3'
p29
F60.0
sS'trans_time_4'
p30
F60.0
sS'trans_setup'
p31
Vatt_pos(4)\u000abs4(0.0)
p32
sS'name_9'
p33
VTN_Na2SO4_sol
p34
sS'name_8'
p35
VSiOil_thermocouple
p36
sS'name_7'
p37
VTN_NaCl_sol
p38
sS'name_6'
p39
VTN_NaCl_6
p40
sS'name_5'
p41
VY10
p42
sS'name_4'
p43
VY4
p44
sS'name_3'
p45
VY9
p46
sS'name_2'
p47
VY3
p48
sS'name_1'
p49
VEmptyBeam
p50
sS'title'
p51
VLow-q
p52
sS'scatt_enabled'
p53
I00
sS'scatt_time_11'
p54
F7200.0
sS'scatt_time_12'
p55
F7200.0
sS'trans_enabled_2'
p56
I00
sS'trans_enabled_1'
p57
I00
sS'scatt_time_10'
p58
F7200.0
sS'trans_enabled_4'
p59
I00
sS'trans_enabled_3'
p60
I00
sS'trans_enabled_6'
p61
I00
sS'trans_enabled_5'
p62
I00
sS'trans_enabled_8'
p63
I00
sS'trans_enabled_7'
p64
I00
sS'trans_enabled_9'
p65
I00
sS'scatt_enabled_1'
p66
I00
sS'name_10'
p67
VTN_Na2SO4_6
p68
sS'scatt_enabled_3'
p69
I00
sS'scatt_enabled_2'
p70
I00
sS'name_11'
p71
VTN_NaNO3_6
p72
sS'name_12'
p73
VTN_NaNO3_sol
p74
sS'scatt_enabled_9'
p75
I00
sS'scatt_enabled_8'
p76
I00
sS'trans_enabled_12'
p77
I00
sS'trans_enabled_11'
p78
I00
sS'trans_enabled_10'
p79
I00
sS'scatt_enabled_5'
p80
I01
sS'scatt_enabled_4'
p81
I01
sS'config'
p82
Vsics.drive('vselspeed', 25000)\u000a\u000anguide(2,'D40','D40')\u000aDetector.det = 13844\u000aDetector.curtaind = 40\u000aDetector.drive()
p83
sS'scatt_enabled_7'
p84
I00
sS'scatt_enabled_6'
p85
I01
sa(dp86
g2
Vbs4(65.8)\u000aatt_pos(1)
p87
sg4
F7200.0
sS'scatt_time_5'
p88
F7200.0
sS'scatt_enabled_12'
p89
I00
sS'scatt_time_4'
p90
F7200.0
sS'scatt_enabled_11'
p91
I00
sS'scatt_time_7'
p92
F7200.0
sS'scatt_time_6'
p93
F7200.0
sS'scatt_time_9'
p94
F7200.0
sS'scatt_time_8'
p95
F600.0
sS'scatt_enabled_10'
p96
I00
sS'trans_time_12'
p97
F60.0
sS'scatt_time_1'
p98
F1.0
sS'scatt_time_3'
p99
F1.0
sS'trans_time_11'
p100
F60.0
sS'scatt_time_2'
p101
F1.0
sS'trans_time_10'
p102
F60.0
sS'trans_time_1'
p103
F60.0
sS'trans_time_2'
p104
F60.0
sg22
I00
sS'trans_time_9'
p105
F60.0
sg24
F60.0
sS'trans_time_7'
p106
F60.0
sS'trans_time_8'
p107
F60.0
sS'trans_time_5'
p108
F60.0
sS'trans_time_6'
p109
F60.0
sS'trans_time_3'
p110
F60.0
sS'trans_time_4'
p111
F60.0
sg31
Vatt_pos(4)\u000abs4(0.0)
p112
sS'name_9'
p113
VTN_Na2SO4_sol
p114
sS'name_8'
p115
VSiOil_thermocouple
p116
sS'name_7'
p117
Vemptybeam
p118
sS'name_6'
p119
VCHx_d12
p120
sS'name_5'
p121
VY10
p122
sS'name_4'
p123
VSFNa_gel
p124
sS'name_3'
p125
VY9
p126
sS'name_2'
p127
VY3
p128
sS'name_1'
p129
VEmptyBeam
p130
sg51
VLow-q
p131
sg53
I00
sS'scatt_time_11'
p132
F7200.0
sS'scatt_time_12'
p133
F7200.0
sS'trans_enabled_2'
p134
I00
sS'trans_enabled_1'
p135
I00
sS'scatt_time_10'
p136
F7200.0
sS'trans_enabled_4'
p137
I01
sS'trans_enabled_3'
p138
I00
sS'trans_enabled_6'
p139
I01
sS'trans_enabled_5'
p140
I00
sS'trans_enabled_8'
p141
I00
sS'trans_enabled_7'
p142
I01
sS'trans_enabled_9'
p143
I00
sS'scatt_enabled_1'
p144
I00
sS'name_10'
p145
VTN_Na2SO4_6
p146
sS'scatt_enabled_3'
p147
I00
sS'scatt_enabled_2'
p148
I00
sS'name_11'
p149
VTN_NaNO3_6
p150
sS'name_12'
p151
VTN_NaNO3_sol
p152
sS'scatt_enabled_9'
p153
I00
sS'scatt_enabled_8'
p154
I00
sS'trans_enabled_12'
p155
I00
sS'trans_enabled_11'
p156
I00
sS'trans_enabled_10'
p157
I00
sS'scatt_enabled_5'
p158
I00
sS'scatt_enabled_4'
p159
I01
sg82
Vsics.drive('vselspeed', 25000)\u000a\u000anguide(2,'D40','D40')\u000aDetector.det = 13844\u000aDetector.curtaind = 40\u000aDetector.drive()
p160
sS'scatt_enabled_7'
p161
I00
sS'scatt_enabled_6'
p162
I01
sa.