(lp0
(dp1
S'scatt_setup'
p2
Vbs4(65.8)\u000aatt_pos(1)
p3
sS'scatt_time'
p4
F10800.0
sS'scatt_time_5'
p5
F10800.0
sS'scatt_time_4'
p6
F10800.0
sS'scatt_time_7'
p7
F10800.0
sS'scatt_time_6'
p8
F10800.0
sS'scatt_time_9'
p9
F7200.0
sS'scatt_time_8'
p10
F10800.0
sS'scatt_enabled_10'
p11
I00
sS'scatt_time_1'
p12
F10800.0
sS'scatt_time_3'
p13
F7200.0
sS'scatt_time_2'
p14
F10800.0
sS'trans_time_10'
p15
F600.0
sS'trans_time_1'
p16
F600.0
sS'trans_time_2'
p17
F600.0
sS'trans_enabled'
p18
I00
sS'trans_time_9'
p19
F600.0
sS'trans_time'
p20
F600.0
sS'trans_time_7'
p21
F600.0
sS'trans_time_8'
p22
F600.0
sS'trans_time_5'
p23
F600.0
sS'trans_time_6'
p24
F600.0
sS'trans_time_3'
p25
F600.0
sS'trans_time_4'
p26
F600.0
sS'trans_setup'
p27
Vatt_pos(2)\u000abs4(0.0)
p28
sS'name_9'
p29
VL7y_20C_45C_temp
p30
sS'name_8'
p31
VL6y_20C
p32
sS'name_7'
p33
VL5y_20C
p34
sS'name_6'
p35
VL4y_20C
p36
sS'name_5'
p37
VL3y_20C
p38
sS'name_4'
p39
VL2y_20C
p40
sS'name_3'
p41
VL1y_20C_45C_temp
p42
sS'name_2'
p43
VL3ynew_20C
p44
sS'name_1'
p45
VEmptyBeam(TempSensor)
p46
sS'title'
p47
Vafter freezer overnight
p48
sS'scatt_enabled'
p49
I00
sS'trans_enabled_2'
p50
I00
sS'trans_enabled_1'
p51
I00
sS'scatt_time_10'
p52
F600.0
sS'trans_enabled_4'
p53
I00
sS'trans_enabled_3'
p54
I00
sS'trans_enabled_6'
p55
I00
sS'trans_enabled_5'
p56
I00
sS'trans_enabled_8'
p57
I00
sS'trans_enabled_7'
p58
I00
sS'trans_enabled_9'
p59
I00
sS'scatt_enabled_1'
p60
I00
sS'name_10'
p61
VMo8
p62
sS'scatt_enabled_3'
p63
I01
sS'scatt_enabled_2'
p64
I00
sS'scatt_enabled_9'
p65
I00
sS'scatt_enabled_8'
p66
I00
sS'trans_enabled_10'
p67
I00
sS'scatt_enabled_5'
p68
I00
sS'scatt_enabled_4'
p69
I00
sS'config'
p70
Vsics.run('tc1_Loop1_vSP',49)
p71
sS'scatt_enabled_7'
p72
I00
sS'scatt_enabled_6'
p73
I00
sa(dp74
g2
Vbs4(65.8)\u000aatt_pos(1)
p75
sg4
F7800.0
sS'scatt_time_5'
p76
F7800.0
sS'scatt_time_4'
p77
F7800.0
sS'scatt_time_7'
p78
F7800.0
sS'scatt_time_6'
p79
F7800.0
sS'scatt_time_9'
p80
F7800.0
sS'scatt_time_8'
p81
F7800.0
sS'scatt_enabled_10'
p82
I00
sS'scatt_time_1'
p83
F7800.0
sS'scatt_time_3'
p84
F7800.0
sS'scatt_time_2'
p85
F7800.0
sS'trans_time_10'
p86
F600.0
sS'trans_time_1'
p87
F600.0
sS'trans_time_2'
p88
F600.0
sg18
I00
sS'trans_time_9'
p89
F600.0
sg20
F600.0
sS'trans_time_7'
p90
F600.0
sS'trans_time_8'
p91
F600.0
sS'trans_time_5'
p92
F600.0
sS'trans_time_6'
p93
F600.0
sS'trans_time_3'
p94
F600.0
sS'trans_time_4'
p95
F600.0
sg27
Vatt_pos(2)\u000abs4(0.0)
p96
sS'name_9'
p97
VL7y_49C
p98
sS'name_8'
p99
VL6y_49C
p100
sS'name_7'
p101
VL5y_49C
p102
sS'name_6'
p103
VL4y_49C
p104
sS'name_5'
p105
VL3y_49C
p106
sS'name_4'
p107
VL2y_49C
p108
sS'name_3'
p109
VL1y_49C
p110
sS'name_2'
p111
VL3ynew_49C
p112
sS'name_1'
p113
VEmptyBeam(TempSensor)
p114
sg47
V45C
p115
sg49
I01
sS'trans_enabled_2'
p116
I01
sS'trans_enabled_1'
p117
I01
sS'scatt_time_10'
p118
F7800.0
sS'trans_enabled_4'
p119
I01
sS'trans_enabled_3'
p120
I01
sS'trans_enabled_6'
p121
I01
sS'trans_enabled_5'
p122
I00
sS'trans_enabled_8'
p123
I01
sS'trans_enabled_7'
p124
I01
sS'trans_enabled_9'
p125
I01
sS'scatt_enabled_1'
p126
I00
sS'name_10'
p127
VMo8
p128
sS'scatt_enabled_3'
p129
I01
sS'scatt_enabled_2'
p130
I01
sS'scatt_enabled_9'
p131
I01
sS'scatt_enabled_8'
p132
I01
sS'trans_enabled_10'
p133
I00
sS'scatt_enabled_5'
p134
I00
sS'scatt_enabled_4'
p135
I01
sg70
V
p136
sS'scatt_enabled_7'
p137
I01
sS'scatt_enabled_6'
p138
I01
sa(dp139
g2
Vbs4(65.8)\u000aatt_pos(1)
p140
sg4
F7200.0
sS'scatt_time_5'
p141
F7200.0
sS'scatt_time_4'
p142
F7200.0
sS'scatt_time_7'
p143
F7200.0
sS'scatt_time_6'
p144
F7200.0
sS'scatt_time_9'
p145
F7200.0
sS'scatt_time_8'
p146
F7200.0
sS'scatt_enabled_10'
p147
I00
sS'scatt_time_1'
p148
F7200.0
sS'scatt_time_3'
p149
F7200.0
sS'scatt_time_2'
p150
F7200.0
sS'trans_time_10'
p151
F600.0
sS'trans_time_1'
p152
F600.0
sS'trans_time_2'
p153
F600.0
sg18
I00
sS'trans_time_9'
p154
F600.0
sg20
F600.0
sS'trans_time_7'
p155
F600.0
sS'trans_time_8'
p156
F600.0
sS'trans_time_5'
p157
F600.0
sS'trans_time_6'
p158
F600.0
sS'trans_time_3'
p159
F600.0
sS'trans_time_4'
p160
F600.0
sg27
Vatt_pos(2)\u000abs4(0.0)
p161
sS'name_9'
p162
VL7y_48C
p163
sS'name_8'
p164
VL6y_48C
p165
sS'name_7'
p166
VL5y_48C
p167
sS'name_6'
p168
VL4y_48C
p169
sS'name_5'
p170
VL3y_48C
p171
sS'name_4'
p172
VL2y_48C
p173
sS'name_3'
p174
VL1y_48C_tempset65
p175
sS'name_2'
p176
VL3ynew_48C
p177
sS'name_1'
p178
VEmptyBeam(TempSensor)
p179
sg47
Vgo to 58C
p180
sg49
I00
sS'trans_enabled_2'
p181
I00
sS'trans_enabled_1'
p182
I00
sS'scatt_time_10'
p183
F7200.0
sS'trans_enabled_4'
p184
I00
sS'trans_enabled_3'
p185
I00
sS'trans_enabled_6'
p186
I00
sS'trans_enabled_5'
p187
I00
sS'trans_enabled_8'
p188
I00
sS'trans_enabled_7'
p189
I00
sS'trans_enabled_9'
p190
I00
sS'scatt_enabled_1'
p191
I00
sS'name_10'
p192
VMo8
p193
sS'scatt_enabled_3'
p194
I01
sS'scatt_enabled_2'
p195
I00
sS'scatt_enabled_9'
p196
I00
sS'scatt_enabled_8'
p197
I00
sS'trans_enabled_10'
p198
I00
sS'scatt_enabled_5'
p199
I00
sS'scatt_enabled_4'
p200
I00
sg70
Vsics.run('tc1_Loop1_vSP',58)
p201
sS'scatt_enabled_7'
p202
I00
sS'scatt_enabled_6'
p203
I00
sa(dp204
g2
Vbs4(65.8)\u000aatt_pos(1)
p205
sg4
F7800.0
sS'scatt_time_5'
p206
F7800.0
sS'scatt_time_4'
p207
F7800.0
sS'scatt_time_7'
p208
F7800.0
sS'scatt_time_6'
p209
F7800.0
sS'scatt_time_9'
p210
F7800.0
sS'scatt_time_8'
p211
F7800.0
sS'scatt_enabled_10'
p212
I00
sS'scatt_time_1'
p213
F7800.0
sS'scatt_time_3'
p214
F7800.0
sS'scatt_time_2'
p215
F7800.0
sS'trans_time_10'
p216
F600.0
sS'trans_time_1'
p217
F600.0
sS'trans_time_2'
p218
F600.0
sg18
I01
sS'trans_time_9'
p219
F600.0
sg20
F600.0
sS'trans_time_7'
p220
F600.0
sS'trans_time_8'
p221
F600.0
sS'trans_time_5'
p222
F600.0
sS'trans_time_6'
p223
F600.0
sS'trans_time_3'
p224
F600.0
sS'trans_time_4'
p225
F600.0
sg27
Vatt_pos(2)\u000abs4(0.0)
p226
sS'name_9'
p227
VL7y_58C
p228
sS'name_8'
p229
VL6y_58C
p230
sS'name_7'
p231
VL5y_58C
p232
sS'name_6'
p233
VL4y_58C
p234
sS'name_5'
p235
VL3y_58C
p236
sS'name_4'
p237
VL2y_58C
p238
sS'name_3'
p239
VL1y_58C
p240
sS'name_2'
p241
VL3ynew_58C
p242
sS'name_1'
p243
VEmptyBeam(TempSensor)
p244
sg47
V55C
p245
sg49
I01
sS'trans_enabled_2'
p246
I01
sS'trans_enabled_1'
p247
I01
sS'scatt_time_10'
p248
F7800.0
sS'trans_enabled_4'
p249
I01
sS'trans_enabled_3'
p250
I01
sS'trans_enabled_6'
p251
I01
sS'trans_enabled_5'
p252
I00
sS'trans_enabled_8'
p253
I01
sS'trans_enabled_7'
p254
I01
sS'trans_enabled_9'
p255
I01
sS'scatt_enabled_1'
p256
I00
sS'name_10'
p257
VMo8
p258
sS'scatt_enabled_3'
p259
I01
sS'scatt_enabled_2'
p260
I01
sS'scatt_enabled_9'
p261
I01
sS'scatt_enabled_8'
p262
I01
sS'trans_enabled_10'
p263
I00
sS'scatt_enabled_5'
p264
I00
sS'scatt_enabled_4'
p265
I01
sg70
Vsics.run('tc1_Loop1_vSP',65)
p266
sS'scatt_enabled_7'
p267
I01
sS'scatt_enabled_6'
p268
I01
sa(dp269
g2
Vbs4(65.8)\u000aatt_pos(1)
p270
sg4
F7200.0
sS'scatt_time_5'
p271
F7200.0
sS'scatt_time_4'
p272
F7200.0
sS'scatt_time_7'
p273
F7200.0
sS'scatt_time_6'
p274
F7200.0
sS'scatt_time_9'
p275
F7200.0
sS'scatt_time_8'
p276
F7200.0
sS'scatt_enabled_10'
p277
I00
sS'scatt_time_1'
p278
F7200.0
sS'scatt_time_3'
p279
F7200.0
sS'scatt_time_2'
p280
F7200.0
sS'trans_time_10'
p281
F600.0
sS'trans_time_1'
p282
F600.0
sS'trans_time_2'
p283
F600.0
sg18
I00
sS'trans_time_9'
p284
F600.0
sg20
F600.0
sS'trans_time_7'
p285
F600.0
sS'trans_time_8'
p286
F600.0
sS'trans_time_5'
p287
F600.0
sS'trans_time_6'
p288
F600.0
sS'trans_time_3'
p289
F600.0
sS'trans_time_4'
p290
F600.0
sg27
Vatt_pos(2)\u000abs4(0.0)
p291
sS'name_9'
p292
VL7y_45C
p293
sS'name_8'
p294
VL6y_45C
p295
sS'name_7'
p296
VL5y_45C
p297
sS'name_6'
p298
VL4y_45C
p299
sS'name_5'
p300
VL3y_45C
p301
sS'name_4'
p302
VL2y_45C
p303
sS'name_3'
p304
VL1y_45C
p305
sS'name_2'
p306
VL3ynew_58C_tempset70
p307
sS'name_1'
p308
VEmptyBeam(TempSensor)
p309
sg47
Vgo to 70C
p310
sg49
I00
sS'trans_enabled_2'
p311
I00
sS'trans_enabled_1'
p312
I00
sS'scatt_time_10'
p313
F7200.0
sS'trans_enabled_4'
p314
I00
sS'trans_enabled_3'
p315
I00
sS'trans_enabled_6'
p316
I00
sS'trans_enabled_5'
p317
I00
sS'trans_enabled_8'
p318
I00
sS'trans_enabled_7'
p319
I00
sS'trans_enabled_9'
p320
I00
sS'scatt_enabled_1'
p321
I00
sS'name_10'
p322
VMo8
p323
sS'scatt_enabled_3'
p324
I01
sS'scatt_enabled_2'
p325
I00
sS'scatt_enabled_9'
p326
I00
sS'scatt_enabled_8'
p327
I00
sS'trans_enabled_10'
p328
I00
sS'scatt_enabled_5'
p329
I00
sS'scatt_enabled_4'
p330
I00
sg70
Vsics.run('tc1_Loop1_vSP',70)
p331
sS'scatt_enabled_7'
p332
I00
sS'scatt_enabled_6'
p333
I00
sa(dp334
g2
Vbs4(65.8)\u000aatt_pos(1)
p335
sg4
F7800.0
sS'scatt_time_5'
p336
F7800.0
sS'scatt_time_4'
p337
F7800.0
sS'scatt_time_7'
p338
F7800.0
sS'scatt_time_6'
p339
F7800.0
sS'scatt_time_9'
p340
F7800.0
sS'scatt_time_8'
p341
F7800.0
sS'scatt_enabled_10'
p342
I00
sS'scatt_time_1'
p343
F7800.0
sS'scatt_time_3'
p344
F7800.0
sS'scatt_time_2'
p345
F7800.0
sS'trans_time_10'
p346
F600.0
sS'trans_time_1'
p347
F600.0
sS'trans_time_2'
p348
F600.0
sg18
I01
sS'trans_time_9'
p349
F600.0
sg20
F600.0
sS'trans_time_7'
p350
F600.0
sS'trans_time_8'
p351
F600.0
sS'trans_time_5'
p352
F600.0
sS'trans_time_6'
p353
F600.0
sS'trans_time_3'
p354
F600.0
sS'trans_time_4'
p355
F600.0
sg27
Vatt_pos(2)\u000abs4(0.0)
p356
sS'name_9'
p357
VL7y_65C
p358
sS'name_8'
p359
VL6y_65C
p360
sS'name_7'
p361
VL5y_65C
p362
sS'name_6'
p363
VL4y_65C
p364
sS'name_5'
p365
VL3y_65C
p366
sS'name_4'
p367
VL2y_65C
p368
sS'name_3'
p369
VL1y_65C
p370
sS'name_2'
p371
VL3ynew_65C
p372
sS'name_1'
p373
VEmptyBeam(TempSensor)
p374
sg47
V70C
p375
sg49
I01
sS'trans_enabled_2'
p376
I01
sS'trans_enabled_1'
p377
I01
sS'scatt_time_10'
p378
F7800.0
sS'trans_enabled_4'
p379
I01
sS'trans_enabled_3'
p380
I01
sS'trans_enabled_6'
p381
I01
sS'trans_enabled_5'
p382
I00
sS'trans_enabled_8'
p383
I01
sS'trans_enabled_7'
p384
I01
sS'trans_enabled_9'
p385
I01
sS'scatt_enabled_1'
p386
I00
sS'name_10'
p387
VMo8
p388
sS'scatt_enabled_3'
p389
I01
sS'scatt_enabled_2'
p390
I01
sS'scatt_enabled_9'
p391
I01
sS'scatt_enabled_8'
p392
I01
sS'trans_enabled_10'
p393
I00
sS'scatt_enabled_5'
p394
I00
sS'scatt_enabled_4'
p395
I01
sg70
Vsics.run('tc1_Loop1_vSP',70)
p396
sS'scatt_enabled_7'
p397
I01
sS'scatt_enabled_6'
p398
I01
sa(dp399
g2
Vbs4(65.8)\u000aatt_pos(1)
p400
sg4
F7200.0
sS'scatt_time_5'
p401
F7200.0
sS'scatt_time_4'
p402
F7200.0
sS'scatt_time_7'
p403
F7200.0
sS'scatt_time_6'
p404
F7200.0
sS'scatt_time_9'
p405
F7200.0
sS'scatt_time_8'
p406
F7200.0
sS'scatt_enabled_10'
p407
I00
sS'scatt_time_1'
p408
F7200.0
sS'scatt_time_3'
p409
F10800.0
sS'scatt_time_2'
p410
F7200.0
sS'trans_time_10'
p411
F600.0
sS'trans_time_1'
p412
F600.0
sS'trans_time_2'
p413
F600.0
sg18
I00
sS'trans_time_9'
p414
F600.0
sg20
F600.0
sS'trans_time_7'
p415
F600.0
sS'trans_time_8'
p416
F600.0
sS'trans_time_5'
p417
F600.0
sS'trans_time_6'
p418
F600.0
sS'trans_time_3'
p419
F600.0
sS'trans_time_4'
p420
F600.0
sg27
Vatt_pos(2)\u000abs4(0.0)
p421
sS'name_9'
p422
VL7y_65C
p423
sS'name_8'
p424
VL6y_65C
p425
sS'name_7'
p426
VL5y_65C
p427
sS'name_6'
p428
VL4y_65C
p429
sS'name_5'
p430
VL3y_65C
p431
sS'name_4'
p432
VL2y_65C
p433
sS'name_3'
p434
VL1y_65C_temp20
p435
sS'name_2'
p436
VL3ynew_65C
p437
sS'name_1'
p438
VEmptyBeam(TempSensor)
p439
sg47
V65C
p440
sg49
I00
sS'trans_enabled_2'
p441
I00
sS'trans_enabled_1'
p442
I00
sS'scatt_time_10'
p443
F7200.0
sS'trans_enabled_4'
p444
I00
sS'trans_enabled_3'
p445
I00
sS'trans_enabled_6'
p446
I00
sS'trans_enabled_5'
p447
I00
sS'trans_enabled_8'
p448
I00
sS'trans_enabled_7'
p449
I00
sS'trans_enabled_9'
p450
I00
sS'scatt_enabled_1'
p451
I00
sS'name_10'
p452
VMo8
p453
sS'scatt_enabled_3'
p454
I01
sS'scatt_enabled_2'
p455
I00
sS'scatt_enabled_9'
p456
I00
sS'scatt_enabled_8'
p457
I00
sS'trans_enabled_10'
p458
I00
sS'scatt_enabled_5'
p459
I00
sS'scatt_enabled_4'
p460
I00
sg70
Vsics.run('tc1_Loop1_vSP',20)
p461
sS'scatt_enabled_7'
p462
I00
sS'scatt_enabled_6'
p463
I00
sa(dp464
g2
Vbs4(65.8)\u000aatt_pos(1)
p465
sg4
F7200.0
sS'scatt_time_5'
p466
F7200.0
sS'scatt_time_4'
p467
F7200.0
sS'scatt_time_7'
p468
F7200.0
sS'scatt_time_6'
p469
F7200.0
sS'scatt_time_9'
p470
F7200.0
sS'scatt_time_8'
p471
F7200.0
sS'scatt_enabled_10'
p472
I00
sS'scatt_time_1'
p473
F7200.0
sS'scatt_time_3'
p474
F10800.0
sS'scatt_time_2'
p475
F7200.0
sS'trans_time_10'
p476
F600.0
sS'trans_time_1'
p477
F600.0
sS'trans_time_2'
p478
F600.0
sg18
I00
sS'trans_time_9'
p479
F600.0
sg20
F600.0
sS'trans_time_7'
p480
F600.0
sS'trans_time_8'
p481
F600.0
sS'trans_time_5'
p482
F600.0
sS'trans_time_6'
p483
F600.0
sS'trans_time_3'
p484
F600.0
sS'trans_time_4'
p485
F600.0
sg27
Vatt_pos(2)\u000abs4(0.0)
p486
sS'name_9'
p487
VL7y_65C
p488
sS'name_8'
p489
VL6y_65C
p490
sS'name_7'
p491
VL5y_65C
p492
sS'name_6'
p493
VL4y_65C
p494
sS'name_5'
p495
VL3y_65C
p496
sS'name_4'
p497
VL2y_65C
p498
sS'name_3'
p499
VL1y_65C_temp20b
p500
sS'name_2'
p501
VL3ynew_65C
p502
sS'name_1'
p503
VEmptyBeam(TempSensor)
p504
sg47
V65C
p505
sg49
I00
sS'trans_enabled_2'
p506
I00
sS'trans_enabled_1'
p507
I00
sS'scatt_time_10'
p508
F7200.0
sS'trans_enabled_4'
p509
I00
sS'trans_enabled_3'
p510
I00
sS'trans_enabled_6'
p511
I00
sS'trans_enabled_5'
p512
I00
sS'trans_enabled_8'
p513
I00
sS'trans_enabled_7'
p514
I00
sS'trans_enabled_9'
p515
I00
sS'scatt_enabled_1'
p516
I00
sS'name_10'
p517
VMo8
p518
sS'scatt_enabled_3'
p519
I01
sS'scatt_enabled_2'
p520
I00
sS'scatt_enabled_9'
p521
I00
sS'scatt_enabled_8'
p522
I00
sS'trans_enabled_10'
p523
I00
sS'scatt_enabled_5'
p524
I00
sS'scatt_enabled_4'
p525
I00
sg70
Vsics.run('tc1_Loop1_vSP',20)
p526
sS'scatt_enabled_7'
p527
I00
sS'scatt_enabled_6'
p528
I00
sa.