(lp0
(dp1
S'scatt_setup'
p2
Vbs4(65.8)\u000aatt_pos(1)
p3
sS'scatt_time'
p4
F7200.0
sS'scatt_time_5'
p5
F7200.0
sS'scatt_enabled_12'
p6
I00
sS'scatt_time_4'
p7
F7200.0
sS'scatt_enabled_11'
p8
I00
sS'scatt_time_7'
p9
F7200.0
sS'scatt_time_6'
p10
F7200.0
sS'scatt_time_9'
p11
F7200.0
sS'scatt_time_8'
p12
F7200.0
sS'scatt_enabled_10'
p13
I00
sS'trans_time_12'
p14
F60.0
sS'scatt_time_1'
p15
F7200.0
sS'scatt_time_3'
p16
F7200.0
sS'trans_time_11'
p17
F60.0
sS'scatt_time_2'
p18
F7200.0
sS'trans_time_10'
p19
F60.0
sS'trans_time_1'
p20
F60.0
sS'trans_time_2'
p21
F60.0
sS'trans_enabled'
p22
I01
sS'trans_time_9'
p23
F60.0
sS'trans_time'
p24
F60.0
sS'trans_time_7'
p25
F60.0
sS'trans_time_8'
p26
F60.0
sS'trans_time_5'
p27
F60.0
sS'trans_time_6'
p28
F60.0
sS'trans_time_3'
p29
F60.0
sS'trans_time_4'
p30
F60.0
sS'trans_setup'
p31
Vatt_pos(4)\u000abs4(0.0)
p32
sS'name_9'
p33
VEmptyCell_1mm
p34
sS'name_8'
p35
VH2O_1mm
p36
sS'name_7'
p37
VCDCl3
p38
sS'name_6'
p39
V10MeOH
p40
sS'name_5'
p41
V
p42
sS'name_4'
p43
VReesor_10MeOH
p44
sS'name_3'
p45
VCDCl3_H2O
p46
sS'name_2'
p47
VReesor_CDCl3_H2O
p48
sS'name_1'
p49
VEmptyBeam
p50
sS'title'
p51
VHigh-q
p52
sS'scatt_enabled'
p53
I01
sS'scatt_time_11'
p54
F7200.0
sS'scatt_time_12'
p55
F7200.0
sS'trans_enabled_2'
p56
I01
sS'trans_enabled_1'
p57
I01
sS'scatt_time_10'
p58
F7200.0
sS'trans_enabled_4'
p59
I01
sS'trans_enabled_3'
p60
I01
sS'trans_enabled_6'
p61
I01
sS'trans_enabled_5'
p62
I00
sS'trans_enabled_8'
p63
I01
sS'trans_enabled_7'
p64
I01
sS'trans_enabled_9'
p65
I01
sS'scatt_enabled_1'
p66
I00
sS'name_10'
p67
VD2O
p68
sS'scatt_enabled_3'
p69
I01
sS'scatt_enabled_2'
p70
I01
sS'name_11'
p71
VD2O_THF
p72
sS'name_12'
p73
V
p74
sS'scatt_enabled_9'
p75
I01
sS'scatt_enabled_8'
p76
I01
sS'trans_enabled_12'
p77
I00
sS'trans_enabled_11'
p78
I00
sS'trans_enabled_10'
p79
I00
sS'scatt_enabled_5'
p80
I00
sS'scatt_enabled_4'
p81
I01
sS'config'
p82
Vsics.drive('vselspeed', 28250)\u000a\u000anguide(5,'D40','D40')\u000aDetector.det = 7844\u000aDetector.curtaind = 65\u000aDetector.drive()
p83
sS'scatt_enabled_7'
p84
I01
sS'scatt_enabled_6'
p85
I01
sa(dp86
g2
Vbs4(65.8)\u000aatt_pos(1)
p87
sg4
F7200.0
sS'scatt_time_5'
p88
F7200.0
sS'scatt_enabled_12'
p89
I00
sS'scatt_time_4'
p90
F7200.0
sS'scatt_enabled_11'
p91
I00
sS'scatt_time_7'
p92
F7200.0
sS'scatt_time_6'
p93
F7200.0
sS'scatt_time_9'
p94
F7200.0
sS'scatt_time_8'
p95
F7200.0
sS'scatt_enabled_10'
p96
I00
sS'trans_time_12'
p97
F60.0
sS'scatt_time_1'
p98
F1.0
sS'scatt_time_3'
p99
F1.0
sS'trans_time_11'
p100
F60.0
sS'scatt_time_2'
p101
F1.0
sS'trans_time_10'
p102
F60.0
sS'trans_time_1'
p103
F60.0
sS'trans_time_2'
p104
F60.0
sg22
I00
sS'trans_time_9'
p105
F60.0
sg24
F60.0
sS'trans_time_7'
p106
F60.0
sS'trans_time_8'
p107
F60.0
sS'trans_time_5'
p108
F60.0
sS'trans_time_6'
p109
F60.0
sS'trans_time_3'
p110
F60.0
sS'trans_time_4'
p111
F60.0
sg31
Vatt_pos(4)\u000abs4(0.0)
p112
sS'name_9'
p113
VEmptyCell_1mm
p114
sS'name_8'
p115
VH2O_1mm
p116
sS'name_7'
p117
VCDCl3
p118
sS'name_6'
p119
V10MeOH
p120
sS'name_5'
p121
V
p122
sS'name_4'
p123
VReesor_10MeOH
p124
sS'name_3'
p125
VCDCl3_H2O
p126
sS'name_2'
p127
VReesor_CDCl3_H2O
p128
sS'name_1'
p129
VEmptyBeam
p130
sg51
VLow-q
p131
sg53
I00
sS'scatt_time_11'
p132
F7200.0
sS'scatt_time_12'
p133
F7200.0
sS'trans_enabled_2'
p134
I00
sS'trans_enabled_1'
p135
I00
sS'scatt_time_10'
p136
F7200.0
sS'trans_enabled_4'
p137
I00
sS'trans_enabled_3'
p138
I00
sS'trans_enabled_6'
p139
I00
sS'trans_enabled_5'
p140
I00
sS'trans_enabled_8'
p141
I00
sS'trans_enabled_7'
p142
I00
sS'trans_enabled_9'
p143
I00
sS'scatt_enabled_1'
p144
I01
sS'name_10'
p145
VD2O
p146
sS'scatt_enabled_3'
p147
I01
sS'scatt_enabled_2'
p148
I01
sS'name_11'
p149
VD2O_THF
p150
sS'name_12'
p151
V
p152
sS'scatt_enabled_9'
p153
I00
sS'scatt_enabled_8'
p154
I00
sS'trans_enabled_12'
p155
I00
sS'trans_enabled_11'
p156
I00
sS'trans_enabled_10'
p157
I00
sS'scatt_enabled_5'
p158
I00
sS'scatt_enabled_4'
p159
I00
sg82
Vsics.drive('vselspeed', 25000)\u000a\u000anguide(2,'D40','D40')\u000aDetector.det = 13844\u000aDetector.curtaind = 40\u000aDetector.drive()
p160
sS'scatt_enabled_7'
p161
I00
sS'scatt_enabled_6'
p162
I00
sa(dp163
g2
Vbs4(65.8)\u000aatt_pos(1)
p164
sg4
F7200.0
sS'scatt_time_5'
p165
F7200.0
sS'scatt_enabled_12'
p166
I00
sS'scatt_time_4'
p167
F7200.0
sS'scatt_enabled_11'
p168
I01
sS'scatt_time_7'
p169
F7200.0
sS'scatt_time_6'
p170
F7200.0
sS'scatt_time_9'
p171
F7200.0
sS'scatt_time_8'
p172
F7200.0
sS'scatt_enabled_10'
p173
I01
sS'trans_time_12'
p174
F60.0
sS'scatt_time_1'
p175
F1.0
sS'scatt_time_3'
p176
F1.0
sS'trans_time_11'
p177
F60.0
sS'scatt_time_2'
p178
F1.0
sS'trans_time_10'
p179
F60.0
sS'trans_time_1'
p180
F60.0
sS'trans_time_2'
p181
F60.0
sg22
I01
sS'trans_time_9'
p182
F60.0
sg24
F60.0
sS'trans_time_7'
p183
F60.0
sS'trans_time_8'
p184
F60.0
sS'trans_time_5'
p185
F60.0
sS'trans_time_6'
p186
F60.0
sS'trans_time_3'
p187
F60.0
sS'trans_time_4'
p188
F60.0
sg31
Vatt_pos(4)\u000abs4(0.0)
p189
sS'name_9'
p190
VEmptyCell_1mm
p191
sS'name_8'
p192
VH2O_1mm
p193
sS'name_7'
p194
VCDCl3
p195
sS'name_6'
p196
V10MeOH
p197
sS'name_5'
p198
V
p199
sS'name_4'
p200
VReesor_10MeOH
p201
sS'name_3'
p202
VCDCl3_H2O
p203
sS'name_2'
p204
VReesor_CDCl3_H2O
p205
sS'name_1'
p206
VEmptyBeam
p207
sg51
VLow-q
p208
sg53
I00
sS'scatt_time_11'
p209
F7200.0
sS'scatt_time_12'
p210
F7200.0
sS'trans_enabled_2'
p211
I00
sS'trans_enabled_1'
p212
I01
sS'scatt_time_10'
p213
F7200.0
sS'trans_enabled_4'
p214
I00
sS'trans_enabled_3'
p215
I00
sS'trans_enabled_6'
p216
I00
sS'trans_enabled_5'
p217
I00
sS'trans_enabled_8'
p218
I01
sS'trans_enabled_7'
p219
I00
sS'trans_enabled_9'
p220
I01
sS'scatt_enabled_1'
p221
I00
sS'name_10'
p222
VD2O
p223
sS'scatt_enabled_3'
p224
I00
sS'scatt_enabled_2'
p225
I00
sS'name_11'
p226
VD2O_THF
p227
sS'name_12'
p228
V
p229
sS'scatt_enabled_9'
p230
I01
sS'scatt_enabled_8'
p231
I01
sS'trans_enabled_12'
p232
I00
sS'trans_enabled_11'
p233
I01
sS'trans_enabled_10'
p234
I01
sS'scatt_enabled_5'
p235
I00
sS'scatt_enabled_4'
p236
I00
sg82
V
p237
sS'scatt_enabled_7'
p238
I00
sS'scatt_enabled_6'
p239
I00
sa.