(lp0
(dp1
S'scatt_setup'
p2
V
p3
sS'scatt_time'
p4
F5.0
sS'scatt_time_5'
p5
F5.0
sS'scatt_time_4'
p6
F5.0
sS'scatt_time_7'
p7
F5.0
sS'scatt_time_6'
p8
F5.0
sS'scatt_time_9'
p9
F5.0
sS'scatt_time_8'
p10
F5.0
sS'scatt_enabled_10'
p11
I00
sS'scatt_time_1'
p12
F5.0
sS'scatt_time_3'
p13
F5.0
sS'scatt_time_2'
p14
F5.0
sS'trans_time_10'
p15
F4.0
sS'trans_time_1'
p16
F4.0
sS'trans_time_2'
p17
F4.0
sS'trans_enabled'
p18
I00
sS'trans_time_9'
p19
F4.0
sS'trans_time'
p20
F4.0
sS'trans_time_7'
p21
F4.0
sS'trans_time_8'
p22
F4.0
sS'trans_time_5'
p23
F4.0
sS'trans_time_6'
p24
F4.0
sS'trans_time_3'
p25
F4.0
sS'trans_time_4'
p26
F4.0
sS'trans_setup'
p27
V
p28
sS'name_9'
p29
V
p30
sS'name_8'
p31
V
p32
sS'name_7'
p33
V
p34
sS'name_6'
p35
V
p36
sS'name_5'
p37
V
p38
sS'name_4'
p39
V
p40
sS'name_3'
p41
V
p42
sS'name_2'
p43
V
p44
sS'name_1'
p45
V
p46
sS'title'
p47
VL1=#_L2=#_ctn=#_name=WB0
p48
sS'scatt_enabled'
p49
I00
sS'trans_enabled_2'
p50
I00
sS'trans_enabled_1'
p51
I00
sS'scatt_time_10'
p52
F5.0
sS'trans_enabled_4'
p53
I00
sS'trans_enabled_3'
p54
I00
sS'trans_enabled_6'
p55
I00
sS'trans_enabled_5'
p56
I00
sS'trans_enabled_8'
p57
I00
sS'trans_enabled_7'
p58
I01
sS'trans_enabled_9'
p59
I00
sS'scatt_enabled_1'
p60
I00
sS'name_10'
p61
V
p62
sS'scatt_enabled_3'
p63
I00
sS'scatt_enabled_2'
p64
I00
sS'scatt_enabled_9'
p65
I00
sS'scatt_enabled_8'
p66
I00
sS'trans_enabled_10'
p67
I00
sS'scatt_enabled_5'
p68
I00
sS'scatt_enabled_4'
p69
I00
sS'config'
p70
V
p71
sS'scatt_enabled_7'
p72
I01
sS'scatt_enabled_6'
p73
I00
sa(dp74
g2
V
p75
sg4
F5.0
sS'scatt_time_5'
p76
F5.0
sS'scatt_time_4'
p77
F5.0
sS'scatt_time_7'
p78
F5.0
sS'scatt_time_6'
p79
F5.0
sS'scatt_time_9'
p80
F5.0
sS'scatt_time_8'
p81
F5.0
sS'scatt_enabled_10'
p82
I00
sS'scatt_time_1'
p83
F5.0
sS'scatt_time_3'
p84
F5.0
sS'scatt_time_2'
p85
F5.0
sS'trans_time_10'
p86
F4.0
sS'trans_time_1'
p87
F4.0
sS'trans_time_2'
p88
F4.0
sg18
I00
sS'trans_time_9'
p89
F4.0
sg20
F4.0
sS'trans_time_7'
p90
F4.0
sS'trans_time_8'
p91
F4.0
sS'trans_time_5'
p92
F4.0
sS'trans_time_6'
p93
F4.0
sS'trans_time_3'
p94
F4.0
sS'trans_time_4'
p95
F4.0
sg27
V
p96
sS'name_9'
p97
V
p98
sS'name_8'
p99
V
p100
sS'name_7'
p101
V
p102
sS'name_6'
p103
V
p104
sS'name_5'
p105
V
p106
sS'name_4'
p107
V
p108
sS'name_3'
p109
V
p110
sS'name_2'
p111
V
p112
sS'name_1'
p113
V
p114
sg47
VL1=#_L2=#_ctn=#_name=WB2
p115
sg49
I00
sS'trans_enabled_2'
p116
I00
sS'trans_enabled_1'
p117
I00
sS'scatt_time_10'
p118
F5.0
sS'trans_enabled_4'
p119
I00
sS'trans_enabled_3'
p120
I00
sS'trans_enabled_6'
p121
I00
sS'trans_enabled_5'
p122
I00
sS'trans_enabled_8'
p123
I00
sS'trans_enabled_7'
p124
I00
sS'trans_enabled_9'
p125
I00
sS'scatt_enabled_1'
p126
I00
sS'name_10'
p127
V
p128
sS'scatt_enabled_3'
p129
I00
sS'scatt_enabled_2'
p130
I00
sS'scatt_enabled_9'
p131
I00
sS'scatt_enabled_8'
p132
I00
sS'trans_enabled_10'
p133
I00
sS'scatt_enabled_5'
p134
I00
sS'scatt_enabled_4'
p135
I00
sg70
V
p136
sS'scatt_enabled_7'
p137
I01
sS'scatt_enabled_6'
p138
I00
sa(dp139
g2
V
p140
sg4
F5.0
sS'scatt_time_5'
p141
F5.0
sS'scatt_time_4'
p142
F5.0
sS'scatt_time_7'
p143
F5.0
sS'scatt_time_6'
p144
F5.0
sS'scatt_time_9'
p145
F5.0
sS'scatt_time_8'
p146
F5.0
sS'scatt_enabled_10'
p147
I00
sS'scatt_time_1'
p148
F5.0
sS'scatt_time_3'
p149
F5.0
sS'scatt_time_2'
p150
F5.0
sS'trans_time_10'
p151
F4.0
sS'trans_time_1'
p152
F4.0
sS'trans_time_2'
p153
F4.0
sg18
I00
sS'trans_time_9'
p154
F4.0
sg20
F4.0
sS'trans_time_7'
p155
F4.0
sS'trans_time_8'
p156
F4.0
sS'trans_time_5'
p157
F4.0
sS'trans_time_6'
p158
F4.0
sS'trans_time_3'
p159
F4.0
sS'trans_time_4'
p160
F4.0
sg27
V
p161
sS'name_9'
p162
V
p163
sS'name_8'
p164
V
p165
sS'name_7'
p166
V
p167
sS'name_6'
p168
V
p169
sS'name_5'
p170
V
p171
sS'name_4'
p172
V
p173
sS'name_3'
p174
V
p175
sS'name_2'
p176
V
p177
sS'name_1'
p178
V
p179
sg47
VL1=#_L2=#_ctn=#_name=WB1
p180
sg49
I00
sS'trans_enabled_2'
p181
I00
sS'trans_enabled_1'
p182
I00
sS'scatt_time_10'
p183
F5.0
sS'trans_enabled_4'
p184
I00
sS'trans_enabled_3'
p185
I00
sS'trans_enabled_6'
p186
I00
sS'trans_enabled_5'
p187
I00
sS'trans_enabled_8'
p188
I00
sS'trans_enabled_7'
p189
I01
sS'trans_enabled_9'
p190
I00
sS'scatt_enabled_1'
p191
I00
sS'name_10'
p192
V
p193
sS'scatt_enabled_3'
p194
I00
sS'scatt_enabled_2'
p195
I00
sS'scatt_enabled_9'
p196
I00
sS'scatt_enabled_8'
p197
I00
sS'trans_enabled_10'
p198
I00
sS'scatt_enabled_5'
p199
I00
sS'scatt_enabled_4'
p200
I00
sg70
V
p201
sS'scatt_enabled_7'
p202
I00
sS'scatt_enabled_6'
p203
I00
sa.