(lp0
(dp1
S'scatt_setup'
p2
Vbs4(65.8)\u000aatt_pos(1)
p3
sS'scatt_time'
p4
F1800.0
sS'scatt_time_5'
p5
F1800.0
sS'scatt_time_4'
p6
F1800.0
sS'scatt_time_7'
p7
F1800.0
sS'scatt_time_6'
p8
F1800.0
sS'scatt_time_9'
p9
F1800.0
sS'scatt_time_8'
p10
F1800.0
sS'scatt_enabled_10'
p11
I00
sS'scatt_time_1'
p12
F1800.0
sS'scatt_time_3'
p13
F1800.0
sS'scatt_time_2'
p14
F1800.0
sS'trans_time_10'
p15
F600.0
sS'trans_time_1'
p16
F600.0
sS'trans_time_2'
p17
F600.0
sS'trans_enabled'
p18
I01
sS'trans_time_9'
p19
F600.0
sS'trans_time'
p20
F600.0
sS'trans_time_7'
p21
F600.0
sS'trans_time_8'
p22
F600.0
sS'trans_time_5'
p23
F600.0
sS'trans_time_6'
p24
F600.0
sS'trans_time_3'
p25
F600.0
sS'trans_time_4'
p26
F600.0
sS'trans_setup'
p27
Vatt_pos(4)\u000abs4(0.0)
p28
sS'name_9'
p29
V
p30
sS'name_8'
p31
VS4
p32
sS'name_7'
p33
VS3
p34
sS'name_6'
p35
VS2
p36
sS'name_5'
p37
VS1
p38
sS'name_4'
p39
VD2O
p40
sS'name_3'
p41
VEmpty_Cell
p42
sS'name_2'
p43
VCd
p44
sS'name_1'
p45
VMT_Beam
p46
sS'title'
p47
VL1=L2=8_Apx12p5_P5821
p48
sS'scatt_enabled'
p49
I01
sS'trans_enabled_2'
p50
I01
sS'trans_enabled_1'
p51
I01
sS'scatt_time_10'
p52
F1800.0
sS'trans_enabled_4'
p53
I01
sS'trans_enabled_3'
p54
I00
sS'trans_enabled_6'
p55
I01
sS'trans_enabled_5'
p56
I01
sS'trans_enabled_8'
p57
I01
sS'trans_enabled_7'
p58
I01
sS'trans_enabled_9'
p59
I00
sS'scatt_enabled_1'
p60
I00
sS'name_10'
p61
V
p62
sS'scatt_enabled_3'
p63
I00
sS'scatt_enabled_2'
p64
I01
sS'scatt_enabled_9'
p65
I00
sS'scatt_enabled_8'
p66
I01
sS'trans_enabled_10'
p67
I00
sS'scatt_enabled_5'
p68
I01
sS'scatt_enabled_4'
p69
I01
sS'config'
p70
Vnguide(4,'D40','D40')\u000aDetector.det = 7821\u000aDetector.curtaindet = 4650\u000aDetector.curtainl = 120\u000aDetector.curtainr = 120\u000aDetector.curtainu = 140\u000aDetector.curtaind = 140\u000aDetector.drive()\u000asapmot('D12.5')\u000a\u000a#sics.drive('tc2_Loop1_setpoint', 25.0)\u000a#import time\u000a#time.sleep(300)
p71
sS'scatt_enabled_7'
p72
I01
sS'scatt_enabled_6'
p73
I01
sa.